ARM GAS  C:\Users\Jonah\AppData\Local\Temp\cc1coCFd.s 			page 1


   1              		.syntax unified
   2              		.cpu cortex-m3
   3              		.fpu softvfp
   4              		.eabi_attribute 20, 1
   5              		.eabi_attribute 21, 1
   6              		.eabi_attribute 23, 3
   7              		.eabi_attribute 24, 1
   8              		.eabi_attribute 25, 1
   9              		.eabi_attribute 26, 1
  10              		.eabi_attribute 30, 6
  11              		.eabi_attribute 34, 1
  12              		.eabi_attribute 18, 4
  13              		.thumb
  14              		.file	"main.c"
  15              		.text
  16              	.Ltext0:
  17              		.cfi_sections	.debug_frame
  18              		.comm	recvChar,1,1
  19              		.comm	ledState,1,1
  20              		.comm	adcOut,4,4
  21              		.comm	EmulatedData,1,1
  22              		.comm	ContinuouslySendData,1,1
  23              		.comm	SendSingleByte,1,1
  24              		.comm	SendEmulatedData,1,1
  25              		.comm	TransmitBuffer,16,4
  26              		.section	.rodata
  27              		.align	2
  28              	.LC0:
  29 0000 61646320 		.ascii	"adc reads: %lu\015\012\000"
  29      72656164 
  29      733A2025 
  29      6C750D0A 
  29      00
  30              		.section	.text.ReadSerial,"ax",%progbits
  31              		.align	2
  32              		.global	ReadSerial
  33              		.thumb
  34              		.thumb_func
  35              		.type	ReadSerial, %function
  36              	ReadSerial:
  37              	.LFB63:
  38              		.file 1 ".\\main.c"
   1:.\main.c      **** /******************************************************************************
   2:.\main.c      **** * Project Name		: Lab 3
   3:.\main.c      **** * File Name			: main.c
   4:.\main.c      **** * Version 			: **
   5:.\main.c      **** * Device Used		: CY8C5888LTI-LP097
   6:.\main.c      **** * Software Used		: PSoC Creator 3.1 SP2
   7:.\main.c      **** * Compiler    		: ARM GCC 4.8.4, ARM RVDS Generic, ARM MDK Generic
   8:.\main.c      **** * Related Hardware	: CY8CKIT059 PSoC 5 LP Prototyping Kit 
   9:.\main.c      **** * Owner				: KLMZ
  10:.\main.c      **** *
  11:.\main.c      **** ********************************************************************************
  12:.\main.c      **** * Copyright (2015), Cypress Semiconductor Corporation. All Rights Reserved.
  13:.\main.c      **** ********************************************************************************
  14:.\main.c      **** * This software is owned by Cypress Semiconductor Corporation (Cypress)
  15:.\main.c      **** * and is protected by and subject to worldwide patent protection (United
ARM GAS  C:\Users\Jonah\AppData\Local\Temp\cc1coCFd.s 			page 2


  16:.\main.c      **** * States and foreign), United States copyright laws and international treaty
  17:.\main.c      **** * provisions. Cypress hereby grants to licensee a personal, non-exclusive,
  18:.\main.c      **** * non-transferable license to copy, use, modify, create derivative works of,
  19:.\main.c      **** * and compile the Cypress Source Code and derivative works for the sole
  20:.\main.c      **** * purpose of creating custom software in support of licensee product to be
  21:.\main.c      **** * used only in conjunction with a Cypress integrated circuit as specified in
  22:.\main.c      **** * the applicable agreement. Any reproduction, modification, translation,
  23:.\main.c      **** * compilation, or representation of this software except as specified above 
  24:.\main.c      **** * is prohibited without the express written permission of Cypress.
  25:.\main.c      **** *
  26:.\main.c      **** * Disclaimer: CYPRESS MAKES NO WARRANTY OF ANY KIND, EXPRESS OR IMPLIED, WITH 
  27:.\main.c      **** * REGARD TO THIS MATERIAL, INCLUDING, BUT NOT LIMITED TO, THE IMPLIED 
  28:.\main.c      **** * WARRANTIES OF MERCHANTABILITY AND FITNESS FOR A PARTICULAR PURPOSE.
  29:.\main.c      **** * Cypress reserves the right to make changes without further notice to the 
  30:.\main.c      **** * materials described herein. Cypress does not assume any liability arising out 
  31:.\main.c      **** * of the application or use of any product or circuit described herein. Cypress 
  32:.\main.c      **** * does not authorize its products for use as critical components in life-support 
  33:.\main.c      **** * systems where a malfunction or failure may reasonably be expected to result in 
  34:.\main.c      **** * significant injury to the user. The inclusion of Cypress' product in a life-
  35:.\main.c      **** * support systems application implies that the manufacturer assumes all risk of 
  36:.\main.c      **** * such use and in doing so indemnifies Cypress against all charges. 
  37:.\main.c      **** *
  38:.\main.c      **** * Use of this Software may be limited by and subject to the applicable Cypress
  39:.\main.c      **** * software license agreement. 
  40:.\main.c      **** 
  41:.\main.c      **** 
  42:.\main.c      **** 3GL, John Dempsey, Kwesi, Haitham
  43:.\main.c      **** *******************************************************************************/
  44:.\main.c      **** 
  45:.\main.c      **** #include <device.h>
  46:.\main.c      **** #include "stdio.h"
  47:.\main.c      **** 
  48:.\main.c      **** /* Project Defines */
  49:.\main.c      **** #define FALSE  0
  50:.\main.c      **** #define TRUE   1
  51:.\main.c      **** #define TRANSMIT_BUFFER_SIZE  16
  52:.\main.c      **** 
  53:.\main.c      **** 
  54:.\main.c      **** /*******************************************************************************
  55:.\main.c      **** * Function Name: main
  56:.\main.c      **** ********************************************************************************
  57:.\main.c      **** *
  58:.\main.c      **** * Summary:
  59:.\main.c      **** *  main() performs following functions:
  60:.\main.c      **** *  1: Starts the ADC and UART components.
  61:.\main.c      **** *  2: Checks for ADC end of conversion.  Stores latest result in output
  62:.\main.c      **** *     if conversion complete.
  63:.\main.c      **** *  3: Checks for UART input.
  64:.\main.c      **** *     On 'C' or 'c' received: transmits the last sample via the UART.
  65:.\main.c      **** *     On 'S' or 's' received: continuously transmits samples as they are completed.
  66:.\main.c      **** *     On 'X' or 'x' received: stops continuously transmitting samples.
  67:.\main.c      **** *     On 'E' or 'e' received: transmits a dummy byte of data.
  68:.\main.c      **** *
  69:.\main.c      **** * Parameters:
  70:.\main.c      **** *  None.
  71:.\main.c      **** *
  72:.\main.c      **** * Return:
ARM GAS  C:\Users\Jonah\AppData\Local\Temp\cc1coCFd.s 			page 3


  73:.\main.c      **** *  None.
  74:.\main.c      **** *
  75:.\main.c      **** *******************************************************************************/
  76:.\main.c      **** 
  77:.\main.c      **** 
  78:.\main.c      **** 
  79:.\main.c      **** uint8 recvChar;     //stores received char from UART on interrupt
  80:.\main.c      **** uint8 ledState;     //turns on and off the LED
  81:.\main.c      **** uint32 adcOut;      //stores ADC result
  82:.\main.c      **** 
  83:.\main.c      **** /* Variable used to send emulated data */
  84:.\main.c      **** uint8 EmulatedData;
  85:.\main.c      **** /* Flags used to store transmit data commands */
  86:.\main.c      **** uint8 ContinuouslySendData;
  87:.\main.c      **** uint8 SendSingleByte;
  88:.\main.c      **** uint8 SendEmulatedData;
  89:.\main.c      **** /* Transmit Buffer */
  90:.\main.c      **** char TransmitBuffer[TRANSMIT_BUFFER_SIZE];
  91:.\main.c      **** 
  92:.\main.c      **** 
  93:.\main.c      **** CY_ISR(ReadSerial) {
  39              		.loc 1 93 0
  40              		.cfi_startproc
  41              		@ args = 0, pretend = 0, frame = 0
  42              		@ frame_needed = 1, uses_anonymous_args = 0
  43 0000 80B5     		push	{r7, lr}
  44              		.cfi_def_cfa_offset 8
  45              		.cfi_offset 7, -8
  46              		.cfi_offset 14, -4
  47 0002 00AF     		add	r7, sp, #0
  48              		.cfi_def_cfa_register 7
  94:.\main.c      ****     //interpret the data
  95:.\main.c      ****     //S or s = switch between waveform and constant Voltage
  96:.\main.c      ****     //R or r = read voltage
  97:.\main.c      ****     //C or c = constant output data
  98:.\main.c      ****     //X or x = stop constantly outputting data
  99:.\main.c      ****     
 100:.\main.c      ****     
 101:.\main.c      ****     Debug_LED_ctrl_Write(ledState);
  49              		.loc 1 101 0
  50 0004 2D4B     		ldr	r3, .L15
  51 0006 1B78     		ldrb	r3, [r3]	@ zero_extendqisi2
  52 0008 1846     		mov	r0, r3
  53 000a FFF7FEFF 		bl	Debug_LED_ctrl_Write
 102:.\main.c      ****     if (ledState) {
  54              		.loc 1 102 0
  55 000e 2B4B     		ldr	r3, .L15
  56 0010 1B78     		ldrb	r3, [r3]	@ zero_extendqisi2
  57 0012 002B     		cmp	r3, #0
  58 0014 03D0     		beq	.L2
 103:.\main.c      ****         ledState = 0;   
  59              		.loc 1 103 0
  60 0016 294B     		ldr	r3, .L15
  61 0018 0022     		movs	r2, #0
  62 001a 1A70     		strb	r2, [r3]
  63 001c 02E0     		b	.L3
  64              	.L2:
ARM GAS  C:\Users\Jonah\AppData\Local\Temp\cc1coCFd.s 			page 4


 104:.\main.c      ****     } else {
 105:.\main.c      ****         ledState = 1;   
  65              		.loc 1 105 0
  66 001e 274B     		ldr	r3, .L15
  67 0020 0122     		movs	r2, #1
  68 0022 1A70     		strb	r2, [r3]
  69              	.L3:
 106:.\main.c      ****     }
 107:.\main.c      ****     
 108:.\main.c      ****     
 109:.\main.c      ****     
 110:.\main.c      ****     recvChar = UART_1_GetChar();
  70              		.loc 1 110 0
  71 0024 FFF7FEFF 		bl	UART_1_GetChar
  72 0028 0346     		mov	r3, r0
  73 002a 1A46     		mov	r2, r3
  74 002c 244B     		ldr	r3, .L15+4
  75 002e 1A70     		strb	r2, [r3]
 111:.\main.c      ****     switch(recvChar)
  76              		.loc 1 111 0
  77 0030 234B     		ldr	r3, .L15+4
  78 0032 1B78     		ldrb	r3, [r3]	@ zero_extendqisi2
  79 0034 582B     		cmp	r3, #88
  80 0036 3BD0     		beq	.L5
  81 0038 582B     		cmp	r3, #88
  82 003a 0BDC     		bgt	.L6
  83 003c 432B     		cmp	r3, #67
  84 003e 33D0     		beq	.L7
  85 0040 432B     		cmp	r3, #67
  86 0042 02DC     		bgt	.L8
  87 0044 002B     		cmp	r3, #0
  88 0046 37D0     		beq	.L14
 112:.\main.c      ****     {
 113:.\main.c      ****         case 0:
 114:.\main.c      ****             //no new data
 115:.\main.c      ****             break;
 116:.\main.c      ****         case 'S':
 117:.\main.c      ****         case 's':
 118:.\main.c      ****             //Switches between waveform DAC and voltage DAC
 119:.\main.c      ****             AMux_1_Select(ledState);
 120:.\main.c      ****             break;
 121:.\main.c      ****         case 'R':
 122:.\main.c      ****         case 'r':
 123:.\main.c      ****             //Reads data and sends it to UART
 124:.\main.c      ****             Control_Reg_1_Write(1);
 125:.\main.c      ****             
 126:.\main.c      ****             adcOut = ADC_DelSig_1_CountsTo_mVolts(ADC_DelSig_1_GetResult16());
 127:.\main.c      ****             sprintf(TransmitBuffer, "adc reads: %lu\r\n", adcOut);
 128:.\main.c      ****             UART_1_PutString(TransmitBuffer);
 129:.\main.c      ****             break;
 130:.\main.c      ****         case 'C':
 131:.\main.c      ****         case 'c':
 132:.\main.c      ****             //Continuously sends data
 133:.\main.c      ****             Control_Reg_1_Write(1);
 134:.\main.c      ****             break;
 135:.\main.c      ****         case 'X':
 136:.\main.c      ****         case 'x':
ARM GAS  C:\Users\Jonah\AppData\Local\Temp\cc1coCFd.s 			page 5


 137:.\main.c      ****             //Cancels continuously sending data
 138:.\main.c      ****             Control_Reg_1_Write(1);
 139:.\main.c      ****             break;
 140:.\main.c      ****         default:
 141:.\main.c      ****             // Place error handling code here
 142:.\main.c      ****             //lol no
 143:.\main.c      ****             break;    
  89              		.loc 1 143 0
  90 0048 37E0     		b	.L1
  91              	.L8:
 111:.\main.c      ****     switch(recvChar)
  92              		.loc 1 111 0
  93 004a 522B     		cmp	r3, #82
  94 004c 14D0     		beq	.L10
  95 004e 532B     		cmp	r3, #83
  96 0050 0CD0     		beq	.L11
  97              		.loc 1 143 0
  98 0052 32E0     		b	.L1
  99              	.L6:
 111:.\main.c      ****     switch(recvChar)
 100              		.loc 1 111 0
 101 0054 722B     		cmp	r3, #114
 102 0056 0FD0     		beq	.L10
 103 0058 722B     		cmp	r3, #114
 104 005a 02DC     		bgt	.L12
 105 005c 632B     		cmp	r3, #99
 106 005e 23D0     		beq	.L7
 107              		.loc 1 143 0
 108 0060 2BE0     		b	.L1
 109              	.L12:
 111:.\main.c      ****     switch(recvChar)
 110              		.loc 1 111 0
 111 0062 732B     		cmp	r3, #115
 112 0064 02D0     		beq	.L11
 113 0066 782B     		cmp	r3, #120
 114 0068 22D0     		beq	.L5
 115              		.loc 1 143 0
 116 006a 26E0     		b	.L1
 117              	.L11:
 119:.\main.c      ****             break;
 118              		.loc 1 119 0
 119 006c 134B     		ldr	r3, .L15
 120 006e 1B78     		ldrb	r3, [r3]	@ zero_extendqisi2
 121 0070 1846     		mov	r0, r3
 122 0072 FFF7FEFF 		bl	AMux_1_FastSelect
 120:.\main.c      ****         case 'R':
 123              		.loc 1 120 0
 124 0076 20E0     		b	.L1
 125              	.L10:
 124:.\main.c      ****             
 126              		.loc 1 124 0
 127 0078 0120     		movs	r0, #1
 128 007a FFF7FEFF 		bl	Control_Reg_1_Write
 126:.\main.c      ****             sprintf(TransmitBuffer, "adc reads: %lu\r\n", adcOut);
 129              		.loc 1 126 0
 130 007e FFF7FEFF 		bl	ADC_DelSig_1_GetResult16
 131 0082 0346     		mov	r3, r0
ARM GAS  C:\Users\Jonah\AppData\Local\Temp\cc1coCFd.s 			page 6


 132 0084 1846     		mov	r0, r3
 133 0086 FFF7FEFF 		bl	ADC_DelSig_1_CountsTo_mVolts
 134 008a 0346     		mov	r3, r0
 135 008c 1A46     		mov	r2, r3
 136 008e 0D4B     		ldr	r3, .L15+8
 137 0090 1A60     		str	r2, [r3]
 127:.\main.c      ****             UART_1_PutString(TransmitBuffer);
 138              		.loc 1 127 0
 139 0092 0C4B     		ldr	r3, .L15+8
 140 0094 1B68     		ldr	r3, [r3]
 141 0096 0C48     		ldr	r0, .L15+12
 142 0098 0C49     		ldr	r1, .L15+16
 143 009a 1A46     		mov	r2, r3
 144 009c FFF7FEFF 		bl	sprintf
 128:.\main.c      ****             break;
 145              		.loc 1 128 0
 146 00a0 0948     		ldr	r0, .L15+12
 147 00a2 FFF7FEFF 		bl	UART_1_PutString
 129:.\main.c      ****         case 'C':
 148              		.loc 1 129 0
 149 00a6 08E0     		b	.L1
 150              	.L7:
 133:.\main.c      ****             break;
 151              		.loc 1 133 0
 152 00a8 0120     		movs	r0, #1
 153 00aa FFF7FEFF 		bl	Control_Reg_1_Write
 134:.\main.c      ****         case 'X':
 154              		.loc 1 134 0
 155 00ae 04E0     		b	.L1
 156              	.L5:
 138:.\main.c      ****             break;
 157              		.loc 1 138 0
 158 00b0 0120     		movs	r0, #1
 159 00b2 FFF7FEFF 		bl	Control_Reg_1_Write
 139:.\main.c      ****         default:
 160              		.loc 1 139 0
 161 00b6 00E0     		b	.L1
 162              	.L14:
 115:.\main.c      ****         case 'S':
 163              		.loc 1 115 0
 164 00b8 00BF     		nop
 165              	.L1:
 144:.\main.c      ****     }
 145:.\main.c      ****         
 146:.\main.c      **** }
 166              		.loc 1 146 0
 167 00ba 80BD     		pop	{r7, pc}
 168              	.L16:
 169              		.align	2
 170              	.L15:
 171 00bc 00000000 		.word	ledState
 172 00c0 00000000 		.word	recvChar
 173 00c4 00000000 		.word	adcOut
 174 00c8 00000000 		.word	TransmitBuffer
 175 00cc 00000000 		.word	.LC0
 176              		.cfi_endproc
 177              	.LFE63:
ARM GAS  C:\Users\Jonah\AppData\Local\Temp\cc1coCFd.s 			page 7


 178              		.size	ReadSerial, .-ReadSerial
 179              		.section	.rodata
 180 0011 000000   		.align	2
 181              	.LC1:
 182 0014 434F4D20 		.ascii	"COM Port Open\000"
 182      506F7274 
 182      204F7065 
 182      6E00
 183 0022 0000     		.section	.text.main,"ax",%progbits
 184              		.align	2
 185              		.global	main
 186              		.thumb
 187              		.thumb_func
 188              		.type	main, %function
 189              	main:
 190              	.LFB64:
 147:.\main.c      **** 
 148:.\main.c      **** 
 149:.\main.c      **** 
 150:.\main.c      **** int main()
 151:.\main.c      **** {
 191              		.loc 1 151 0
 192              		.cfi_startproc
 193              		@ args = 0, pretend = 0, frame = 0
 194              		@ frame_needed = 1, uses_anonymous_args = 0
 195 0000 80B5     		push	{r7, lr}
 196              		.cfi_def_cfa_offset 8
 197              		.cfi_offset 7, -8
 198              		.cfi_offset 14, -4
 199 0002 00AF     		add	r7, sp, #0
 200              		.cfi_def_cfa_register 7
 152:.\main.c      ****     
 153:.\main.c      ****    
 154:.\main.c      ****     isr_1_StartEx(ReadSerial);      //attach the interrupt
 201              		.loc 1 154 0
 202 0004 1048     		ldr	r0, .L19
 203 0006 FFF7FEFF 		bl	isr_1_StartEx
 155:.\main.c      ****     CYGlobalIntEnable;              //this one line wasted like an hour
 204              		.loc 1 155 0
 205              	@ 155 ".\main.c" 1
 206 000a 62B6     		CPSIE   i
 207              	@ 0 "" 2
 156:.\main.c      ****     
 157:.\main.c      ****     /* Start the components */
 158:.\main.c      ****     ADC_DelSig_1_Start();
 208              		.loc 1 158 0
 209              		.thumb
 210 000c FFF7FEFF 		bl	ADC_DelSig_1_Start
 159:.\main.c      ****     UART_1_Start();
 211              		.loc 1 159 0
 212 0010 FFF7FEFF 		bl	UART_1_Start
 160:.\main.c      ****     UART_1_SetRxInterruptMode(UART_1_RX_STS_FIFO_NOTEMPTY);     //enable interrupts via software
 213              		.loc 1 160 0
 214 0014 2020     		movs	r0, #32
 215 0016 FFF7FEFF 		bl	UART_1_SetRxInterruptMode
 161:.\main.c      ****     VDAC8_1_Start();
 216              		.loc 1 161 0
ARM GAS  C:\Users\Jonah\AppData\Local\Temp\cc1coCFd.s 			page 8


 217 001a FFF7FEFF 		bl	VDAC8_1_Start
 162:.\main.c      ****     WaveDAC8_1_Start();
 218              		.loc 1 162 0
 219 001e FFF7FEFF 		bl	WaveDAC8_1_Start
 163:.\main.c      ****     AMux_1_Start();
 220              		.loc 1 163 0
 221 0022 FFF7FEFF 		bl	AMux_1_Start
 164:.\main.c      ****     AMux_1_Select(1);
 222              		.loc 1 164 0
 223 0026 0120     		movs	r0, #1
 224 0028 FFF7FEFF 		bl	AMux_1_FastSelect
 165:.\main.c      ****     //amux_1_
 166:.\main.c      ****     
 167:.\main.c      ****     //initialize variables
 168:.\main.c      ****     ledState = 1;
 225              		.loc 1 168 0
 226 002c 074B     		ldr	r3, .L19+4
 227 002e 0122     		movs	r2, #1
 228 0030 1A70     		strb	r2, [r3]
 169:.\main.c      ****     
 170:.\main.c      ****     Debug_LED_ctrl_Write(ledState);
 229              		.loc 1 170 0
 230 0032 064B     		ldr	r3, .L19+4
 231 0034 1B78     		ldrb	r3, [r3]	@ zero_extendqisi2
 232 0036 1846     		mov	r0, r3
 233 0038 FFF7FEFF 		bl	Debug_LED_ctrl_Write
 171:.\main.c      ****     
 172:.\main.c      ****     
 173:.\main.c      **** 
 174:.\main.c      ****     
 175:.\main.c      ****     
 176:.\main.c      ****     /* Start the ADC conversion */
 177:.\main.c      ****     ADC_DelSig_1_StartConvert();
 234              		.loc 1 177 0
 235 003c FFF7FEFF 		bl	ADC_DelSig_1_StartConvert
 178:.\main.c      ****     
 179:.\main.c      ****     /* Send message to verify COM port is connected properly */
 180:.\main.c      ****     UART_1_PutString("COM Port Open");
 236              		.loc 1 180 0
 237 0040 0348     		ldr	r0, .L19+8
 238 0042 FFF7FEFF 		bl	UART_1_PutString
 239              	.L18:
 181:.\main.c      ****     
 182:.\main.c      ****     for(;;)
 183:.\main.c      ****     {     
 184:.\main.c      ****         
 185:.\main.c      ****         /*
 186:.\main.c      ****         //UART_1_PutString("COM Port Open");
 187:.\main.c      ****         if(ADC_DelSig_1_IsEndConversion(ADC_DelSig_1_RETURN_STATUS))
 188:.\main.c      ****         {
 189:.\main.c      **** 
 190:.\main.c      ****             Output = ADC_DelSig_1_CountsTo_mVolts(ADC_DelSig_1_GetResult16());
 191:.\main.c      ****             
 192:.\main.c      ****             if(SendSingleByte || ContinuouslySendData)
 193:.\main.c      ****             {
 194:.\main.c      ****                 sprintf(TransmitBuffer, "Sample: %lu mV\r\n", Output);
 195:.\main.c      ****                 UART_1_PutString(TransmitBuffer);
ARM GAS  C:\Users\Jonah\AppData\Local\Temp\cc1coCFd.s 			page 9


 196:.\main.c      ****                 SendSingleByte = FALSE;
 197:.\main.c      ****             }
 198:.\main.c      ****             else if(SendEmulatedData)
 199:.\main.c      ****             {
 200:.\main.c      ****                 sprintf(TransmitBuffer, "Emulated Data: %x \r\n", EmulatedData);
 201:.\main.c      **** 
 202:.\main.c      ****                 UART_1_PutString(TransmitBuffer);
 203:.\main.c      ****                 EmulatedData++;
 204:.\main.c      ****                 SendEmulatedData = FALSE;   
 205:.\main.c      ****             }
 206:.\main.c      ****         }
 207:.\main.c      ****         */
 208:.\main.c      ****     }
 240              		.loc 1 208 0 discriminator 1
 241 0046 FEE7     		b	.L18
 242              	.L20:
 243              		.align	2
 244              	.L19:
 245 0048 00000000 		.word	ReadSerial
 246 004c 00000000 		.word	ledState
 247 0050 14000000 		.word	.LC1
 248              		.cfi_endproc
 249              	.LFE64:
 250              		.size	main, .-main
 251              		.text
 252              	.Letext0:
 253              		.file 2 "c:\\program files (x86)\\cypress\\psoc creator\\3.3\\psoc creator\\import\\gnu\\arm\\4.9.
 254              		.file 3 "c:\\program files (x86)\\cypress\\psoc creator\\3.3\\psoc creator\\import\\gnu\\arm\\4.9.
 255              		.file 4 "Generated_Source\\PSoC5/cytypes.h"
 256              		.file 5 "Generated_Source\\PSoC5/core_cm3.h"