ARM GAS  C:\Users\Jonah\AppData\Local\Temp\cc7HOeJf.s 			page 1


   1              		.syntax unified
   2              		.cpu cortex-m3
   3              		.fpu softvfp
   4              		.eabi_attribute 20, 1
   5              		.eabi_attribute 21, 1
   6              		.eabi_attribute 23, 3
   7              		.eabi_attribute 24, 1
   8              		.eabi_attribute 25, 1
   9              		.eabi_attribute 26, 1
  10              		.eabi_attribute 30, 6
  11              		.eabi_attribute 34, 1
  12              		.eabi_attribute 18, 4
  13              		.thumb
  14              		.file	"main.c"
  15              		.text
  16              	.Ltext0:
  17              		.cfi_sections	.debug_frame
  18              		.global	recvChar
  19              		.bss
  20              		.type	recvChar, %object
  21              		.size	recvChar, 1
  22              	recvChar:
  23 0000 00       		.space	1
  24              		.global	adcOut
  25 0001 000000   		.align	2
  26              		.type	adcOut, %object
  27              		.size	adcOut, 4
  28              	adcOut:
  29 0004 00000000 		.space	4
  30              		.global	continuousSending
  31              		.type	continuousSending, %object
  32              		.size	continuousSending, 1
  33              	continuousSending:
  34 0008 00       		.space	1
  35              		.global	dacState
  36              		.type	dacState, %object
  37              		.size	dacState, 1
  38              	dacState:
  39 0009 00       		.space	1
  40              		.global	waveForm
  41              		.type	waveForm, %object
  42              		.size	waveForm, 1
  43              	waveForm:
  44 000a 00       		.space	1
  45              		.global	inputting_degrees
  46              		.type	inputting_degrees, %object
  47              		.size	inputting_degrees, 1
  48              	inputting_degrees:
  49 000b 00       		.space	1
  50              		.global	TransmitBuffer
  51              		.align	2
  52              		.type	TransmitBuffer, %object
  53              		.size	TransmitBuffer, 16
  54              	TransmitBuffer:
  55 000c 00000000 		.space	16
  55      00000000 
  55      00000000 
ARM GAS  C:\Users\Jonah\AppData\Local\Temp\cc7HOeJf.s 			page 2


  55      00000000 
  56              		.global	degree
  57              		.align	2
  58              		.type	degree, %object
  59              		.size	degree, 4
  60              	degree:
  61 001c 00000000 		.space	4
  62              		.global	digit_place
  63              		.align	2
  64              		.type	digit_place, %object
  65              		.size	digit_place, 4
  66              	digit_place:
  67 0020 00000000 		.space	4
  68              		.global	counter
  69              		.align	2
  70              		.type	counter, %object
  71              		.size	counter, 4
  72              	counter:
  73 0024 00000000 		.space	4
  74              		.comm	DMA_ARRAY,4096,4
  75              		.comm	DMA_1_Chan,1,1
  76              		.comm	DMA_1_TD,1,4
  77              		.section	.text.exponentiate,"ax",%progbits
  78              		.align	2
  79              		.global	exponentiate
  80              		.thumb
  81              		.thumb_func
  82              		.type	exponentiate, %function
  83              	exponentiate:
  84              	.LFB63:
  85              		.file 1 ".\\main.c"
   1:.\main.c      **** /******************************************************************************
   2:.\main.c      **** * Project Name		: Lab 3
   3:.\main.c      **** * File Name			: main.c
   4:.\main.c      **** * Version 			: **
   5:.\main.c      **** * Device Used		: CY8C5888LTI-LP097
   6:.\main.c      **** * Software Used		: PSoC Creator 3.1 SP2
   7:.\main.c      **** * Compiler    		: ARM GCC 4.8.4, ARM RVDS Generic, ARM MDK Generic
   8:.\main.c      **** * Related Hardware	: CY8CKIT059 PSoC 5 LP Prototyping Kit 
   9:.\main.c      **** * Owner				: KLMZ
  10:.\main.c      **** *
  11:.\main.c      **** ********************************************************************************
  12:.\main.c      **** * Copyright (2015), Cypress Semiconductor Corporation. All Rights Reserved.
  13:.\main.c      **** ********************************************************************************
  14:.\main.c      **** * This software is owned by Cypress Semiconductor Corporation (Cypress)
  15:.\main.c      **** * and is protected by and subject to worldwide patent protection (United
  16:.\main.c      **** * States and foreign), United States copyright laws and international treaty
  17:.\main.c      **** * provisions. Cypress hereby grants to licensee a personal, non-exclusive,
  18:.\main.c      **** * non-transferable license to copy, use, modify, create derivative works of,
  19:.\main.c      **** * and compile the Cypress Source Code and derivative works for the sole
  20:.\main.c      **** * purpose of creating custom software in support of licensee product to be
  21:.\main.c      **** * used only in conjunction with a Cypress integrated circuit as specified in
  22:.\main.c      **** * the applicable agreement. Any reproduction, modification, translation,
  23:.\main.c      **** * compilation, or representation of this software except as specified above 
  24:.\main.c      **** * is prohibited without the express written permission of Cypress.
  25:.\main.c      **** *
  26:.\main.c      **** * Disclaimer: CYPRESS MAKES NO WARRANTY OF ANY KIND, EXPRESS OR IMPLIED, WITH 
ARM GAS  C:\Users\Jonah\AppData\Local\Temp\cc7HOeJf.s 			page 3


  27:.\main.c      **** * REGARD TO THIS MATERIAL, INCLUDING, BUT NOT LIMITED TO, THE IMPLIED 
  28:.\main.c      **** * WARRANTIES OF MERCHANTABILITY AND FITNESS FOR A PARTICULAR PURPOSE.
  29:.\main.c      **** * Cypress reserves the right to make changes without further notice to the 
  30:.\main.c      **** * materials described herein. Cypress does not assume any liability arising out 
  31:.\main.c      **** * of the application or use of any product or circuit described herein. Cypress 
  32:.\main.c      **** * does not authorize its products for use as critical components in life-support 
  33:.\main.c      **** * systems where a malfunction or failure may reasonably be expected to result in 
  34:.\main.c      **** * significant injury to the user. The inclusion of Cypress' product in a life-
  35:.\main.c      **** * support systems application implies that the manufacturer assumes all risk of 
  36:.\main.c      **** * such use and in doing so indemnifies Cypress against all charges. 
  37:.\main.c      **** *
  38:.\main.c      **** * Use of this Software may be limited by and subject to the applicable Cypress
  39:.\main.c      **** * software license agreement. 
  40:.\main.c      **** 
  41:.\main.c      **** 
  42:.\main.c      **** 3GL, John Dempsey, Kwesi, Haitham
  43:.\main.c      **** *******************************************************************************/
  44:.\main.c      **** 
  45:.\main.c      **** #include <device.h>
  46:.\main.c      **** #include "stdio.h"
  47:.\main.c      **** #include <stdbool.h>
  48:.\main.c      **** 
  49:.\main.c      **** 
  50:.\main.c      **** 
  51:.\main.c      **** 
  52:.\main.c      **** /*******************************************************************************
  53:.\main.c      **** * Function Name: main
  54:.\main.c      **** ********************************************************************************
  55:.\main.c      **** *
  56:.\main.c      **** * Summary:
  57:.\main.c      **** *  main() performs following functions:
  58:.\main.c      **** *  1: Starts the ADC, UART, and 2 different DAC components.
  59:.\main.c      **** *  2: Receives UART Input to sample ADC and return sample to UART
  60:.\main.c      **** *     On 'C' or 'c' received: continuously transmits samples as they are completed.
  61:.\main.c      **** *     On 'R' or 'r' received: single Read command, polls ADC and prints reading.
  62:.\main.c      **** *     On 'X' or 'x' received: stops continuously transmitting samples.
  63:.\main.c      **** *     On 'S' or 's' received: Switches between waveform DAC and constant voltage DAC
  64:.\main.c      ****       On 'W' or 'w' received: toggle waveform generated by waveform DAC
  65:.\main.c      **** *
  66:.\main.c      **** * Parameters:
  67:.\main.c      **** *  None.
  68:.\main.c      **** *
  69:.\main.c      **** * Return:
  70:.\main.c      **** *  None.
  71:.\main.c      **** *
  72:.\main.c      **** *******************************************************************************/
  73:.\main.c      **** 
  74:.\main.c      **** 
  75:.\main.c      **** #define TRANSMIT_BUFFER_SIZE  16
  76:.\main.c      **** 
  77:.\main.c      **** 
  78:.\main.c      **** uint8 recvChar = 0;     //stores received char from UART on interrupt
  79:.\main.c      **** uint32 adcOut = 0;      //stores ADC result
  80:.\main.c      **** bool continuousSending = false;     //polls ADC and sends Serial data continuously
  81:.\main.c      **** uint8 dacState = 0;     //0 or 1 to choose between waveform DAC or constant voltage DAC
  82:.\main.c      **** uint8 waveForm = 0;     //changes the waveform generated by waveform DAC
  83:.\main.c      **** 
ARM GAS  C:\Users\Jonah\AppData\Local\Temp\cc7HOeJf.s 			page 4


  84:.\main.c      **** bool inputting_degrees = false;     //flag for if we're listening to numbers for serial connection
  85:.\main.c      **** 
  86:.\main.c      **** char TransmitBuffer[TRANSMIT_BUFFER_SIZE] = {0};  //transmit buffer for sending strings
  87:.\main.c      **** 
  88:.\main.c      **** int degree = 0;
  89:.\main.c      **** int digit_place = 0;
  90:.\main.c      **** int counter = 0;
  91:.\main.c      **** 
  92:.\main.c      **** long int DMA_ARRAY[1024];
  93:.\main.c      **** 
  94:.\main.c      **** 
  95:.\main.c      **** 
  96:.\main.c      **** //DMA
  97:.\main.c      **** 
  98:.\main.c      ****     /* Defines for DMA_1 */
  99:.\main.c      **** #define DMA_1_BYTES_PER_BURST 1
 100:.\main.c      **** #define DMA_1_REQUEST_PER_BURST 1
 101:.\main.c      **** #define DMA_1_SRC_BASE (CYDEV_PERIPH_BASE)
 102:.\main.c      **** #define DMA_1_DST_BASE (CYDEV_SRAM_BASE)
 103:.\main.c      **** 
 104:.\main.c      **** /* Variable declarations for DMA_1 */
 105:.\main.c      **** /* Move these variable declarations to the top of the function */
 106:.\main.c      **** uint8 DMA_1_Chan;
 107:.\main.c      **** uint8 DMA_1_TD[1];
 108:.\main.c      **** 
 109:.\main.c      **** 
 110:.\main.c      **** //function declarations
 111:.\main.c      **** int Turn_servo_degrees(int degrees);
 112:.\main.c      **** 
 113:.\main.c      **** int exponentiate (int base, int exponent) {
  86              		.loc 1 113 0
  87              		.cfi_startproc
  88              		@ args = 0, pretend = 0, frame = 16
  89              		@ frame_needed = 1, uses_anonymous_args = 0
  90              		@ link register save eliminated.
  91 0000 80B4     		push	{r7}
  92              		.cfi_def_cfa_offset 4
  93              		.cfi_offset 7, -4
  94 0002 85B0     		sub	sp, sp, #20
  95              		.cfi_def_cfa_offset 24
  96 0004 00AF     		add	r7, sp, #0
  97              		.cfi_def_cfa_register 7
  98 0006 7860     		str	r0, [r7, #4]
  99 0008 3960     		str	r1, [r7]
 114:.\main.c      **** 
 115:.\main.c      ****     if (exponent == 0) return 1;
 100              		.loc 1 115 0
 101 000a 3B68     		ldr	r3, [r7]
 102 000c 002B     		cmp	r3, #0
 103 000e 01D1     		bne	.L2
 104              		.loc 1 115 0 is_stmt 0 discriminator 1
 105 0010 0123     		movs	r3, #1
 106 0012 13E0     		b	.L3
 107              	.L2:
 116:.\main.c      ****     int final = 1;
 108              		.loc 1 116 0 is_stmt 1
 109 0014 0123     		movs	r3, #1
ARM GAS  C:\Users\Jonah\AppData\Local\Temp\cc7HOeJf.s 			page 5


 110 0016 FB60     		str	r3, [r7, #12]
 117:.\main.c      **** 
 118:.\main.c      ****     int k = 1;
 111              		.loc 1 118 0
 112 0018 0123     		movs	r3, #1
 113 001a BB60     		str	r3, [r7, #8]
 119:.\main.c      ****     for (k=1; k<=exponent; k++) {
 114              		.loc 1 119 0
 115 001c 0123     		movs	r3, #1
 116 001e BB60     		str	r3, [r7, #8]
 117 0020 07E0     		b	.L4
 118              	.L5:
 120:.\main.c      **** 	    final = final*base;
 119              		.loc 1 120 0 discriminator 3
 120 0022 FB68     		ldr	r3, [r7, #12]
 121 0024 7A68     		ldr	r2, [r7, #4]
 122 0026 02FB03F3 		mul	r3, r2, r3
 123 002a FB60     		str	r3, [r7, #12]
 119:.\main.c      ****     for (k=1; k<=exponent; k++) {
 124              		.loc 1 119 0 discriminator 3
 125 002c BB68     		ldr	r3, [r7, #8]
 126 002e 0133     		adds	r3, r3, #1
 127 0030 BB60     		str	r3, [r7, #8]
 128              	.L4:
 119:.\main.c      ****     for (k=1; k<=exponent; k++) {
 129              		.loc 1 119 0 is_stmt 0 discriminator 1
 130 0032 BA68     		ldr	r2, [r7, #8]
 131 0034 3B68     		ldr	r3, [r7]
 132 0036 9A42     		cmp	r2, r3
 133 0038 F3DD     		ble	.L5
 121:.\main.c      ****     }
 122:.\main.c      ****     
 123:.\main.c      ****     return final;
 134              		.loc 1 123 0 is_stmt 1
 135 003a FB68     		ldr	r3, [r7, #12]
 136              	.L3:
 124:.\main.c      **** }
 137              		.loc 1 124 0
 138 003c 1846     		mov	r0, r3
 139 003e 1437     		adds	r7, r7, #20
 140              		.cfi_def_cfa_offset 4
 141 0040 BD46     		mov	sp, r7
 142              		.cfi_def_cfa_register 13
 143              		@ sp needed
 144 0042 5DF8047B 		ldr	r7, [sp], #4
 145              		.cfi_restore 7
 146              		.cfi_def_cfa_offset 0
 147 0046 7047     		bx	lr
 148              		.cfi_endproc
 149              	.LFE63:
 150              		.size	exponentiate, .-exponentiate
 151              		.section	.text.DMA_Handler,"ax",%progbits
 152              		.align	2
 153              		.global	DMA_Handler
 154              		.thumb
 155              		.thumb_func
 156              		.type	DMA_Handler, %function
ARM GAS  C:\Users\Jonah\AppData\Local\Temp\cc7HOeJf.s 			page 6


 157              	DMA_Handler:
 158              	.LFB64:
 125:.\main.c      **** int Sing (int);
 126:.\main.c      **** 
 127:.\main.c      **** 
 128:.\main.c      **** CY_ISR(DMA_Handler) {
 159              		.loc 1 128 0
 160              		.cfi_startproc
 161              		@ args = 0, pretend = 0, frame = 8
 162              		@ frame_needed = 1, uses_anonymous_args = 0
 163 0000 80B5     		push	{r7, lr}
 164              		.cfi_def_cfa_offset 8
 165              		.cfi_offset 7, -8
 166              		.cfi_offset 14, -4
 167 0002 82B0     		sub	sp, sp, #8
 168              		.cfi_def_cfa_offset 16
 169 0004 00AF     		add	r7, sp, #0
 170              		.cfi_def_cfa_register 7
 129:.\main.c      ****     dma_interrupt_ClearPending();
 171              		.loc 1 129 0
 172 0006 FFF7FEFF 		bl	dma_interrupt_ClearPending
 130:.\main.c      ****     
 131:.\main.c      ****     int i = 0;
 173              		.loc 1 131 0
 174 000a 0023     		movs	r3, #0
 175 000c 7B60     		str	r3, [r7, #4]
 132:.\main.c      ****     /*
 133:.\main.c      ****     for (i = 0; i < 256; i++) {
 134:.\main.c      ****         Sing(DMA_ARRAY[i]/1000);
 135:.\main.c      ****     }
 136:.\main.c      ****     */
 137:.\main.c      ****     
 138:.\main.c      **** }
 176              		.loc 1 138 0
 177 000e 0837     		adds	r7, r7, #8
 178              		.cfi_def_cfa_offset 8
 179 0010 BD46     		mov	sp, r7
 180              		.cfi_def_cfa_register 13
 181              		@ sp needed
 182 0012 80BD     		pop	{r7, pc}
 183              		.cfi_endproc
 184              	.LFE64:
 185              		.size	DMA_Handler, .-DMA_Handler
 186              		.section	.rodata
 187              		.align	2
 188              	.LC0:
 189 0000 676F7420 		.ascii	"got this character: %d\015\012\000"
 189      74686973 
 189      20636861 
 189      72616374 
 189      65723A20 
 190 0019 000000   		.align	2
 191              	.LC1:
 192 001c 52656365 		.ascii	"Receiving degrees, digitplace: %d\015\012\000"
 192      6976696E 
 192      67206465 
 192      67726565 
ARM GAS  C:\Users\Jonah\AppData\Local\Temp\cc7HOeJf.s 			page 7


 192      732C2064 
 193              		.align	2
 194              	.LC2:
 195 0040 53696E67 		.ascii	"Single ADC Read: %lu\015\012\000"
 195      6C652041 
 195      44432052 
 195      6561643A 
 195      20256C75 
 196 0057 00       		.align	2
 197              	.LC3:
 198 0058 496E7661 		.ascii	"Invalid command!\015\012\000"
 198      6C696420 
 198      636F6D6D 
 198      616E6421 
 198      0D0A00
 199              		.section	.text.ReadSerial,"ax",%progbits
 200              		.align	2
 201              		.global	ReadSerial
 202              		.thumb
 203              		.thumb_func
 204              		.type	ReadSerial, %function
 205              	ReadSerial:
 206              	.LFB65:
 139:.\main.c      **** 
 140:.\main.c      **** //ISR triggered upon UART receiving data
 141:.\main.c      **** CY_ISR(ReadSerial) {
 207              		.loc 1 141 0
 208              		.cfi_startproc
 209              		@ args = 0, pretend = 0, frame = 8
 210              		@ frame_needed = 1, uses_anonymous_args = 0
 211 0000 80B5     		push	{r7, lr}
 212              		.cfi_def_cfa_offset 8
 213              		.cfi_offset 7, -8
 214              		.cfi_offset 14, -4
 215 0002 82B0     		sub	sp, sp, #8
 216              		.cfi_def_cfa_offset 16
 217 0004 00AF     		add	r7, sp, #0
 218              		.cfi_def_cfa_register 7
 142:.\main.c      ****     //interpret the data
 143:.\main.c      ****     //S or s = switch between waveform and constant Voltage
 144:.\main.c      ****     //R or r = read voltage
 145:.\main.c      ****     //C or c = constant output data
 146:.\main.c      ****     //X or x = stop constantly outputting data
 147:.\main.c      ****     //W or w = switch waveform
 148:.\main.c      ****     
 149:.\main.c      ****     isr_1_ClearPending();   //apparently do this at beginning of ISR
 219              		.loc 1 149 0
 220 0006 FFF7FEFF 		bl	isr_1_ClearPending
 150:.\main.c      ****     
 151:.\main.c      ****     recvChar = UART_1_GetChar();
 221              		.loc 1 151 0
 222 000a FFF7FEFF 		bl	UART_1_GetChar
 223 000e 0346     		mov	r3, r0
 224 0010 1A46     		mov	r2, r3
 225 0012 B94B     		ldr	r3, .L22
 226 0014 1A70     		strb	r2, [r3]
 152:.\main.c      ****     sprintf(TransmitBuffer, "got this character: %d\r\n", recvChar);
ARM GAS  C:\Users\Jonah\AppData\Local\Temp\cc7HOeJf.s 			page 8


 227              		.loc 1 152 0
 228 0016 B84B     		ldr	r3, .L22
 229 0018 1B78     		ldrb	r3, [r3]	@ zero_extendqisi2
 230 001a B848     		ldr	r0, .L22+4
 231 001c B849     		ldr	r1, .L22+8
 232 001e 1A46     		mov	r2, r3
 233 0020 FFF7FEFF 		bl	sprintf
 153:.\main.c      ****     UART_1_PutString(TransmitBuffer);
 234              		.loc 1 153 0
 235 0024 B548     		ldr	r0, .L22+4
 236 0026 FFF7FEFF 		bl	UART_1_PutString
 154:.\main.c      ****     
 155:.\main.c      ****     bool invalid = false;
 237              		.loc 1 155 0
 238 002a 0023     		movs	r3, #0
 239 002c FB71     		strb	r3, [r7, #7]
 156:.\main.c      ****     
 157:.\main.c      ****     
 158:.\main.c      ****     switch(recvChar)
 240              		.loc 1 158 0
 241 002e B24B     		ldr	r3, .L22
 242 0030 1B78     		ldrb	r3, [r3]	@ zero_extendqisi2
 243 0032 782B     		cmp	r3, #120
 244 0034 00F24081 		bhi	.L8
 245 0038 01A2     		adr	r2, .L10
 246 003a 52F823F0 		ldr	pc, [r2, r3, lsl #2]
 247 003e 00BF     		.p2align 2
 248              	.L10:
 249 0040 C5020000 		.word	.L21+1
 250 0044 B9020000 		.word	.L8+1
 251 0048 B9020000 		.word	.L8+1
 252 004c B9020000 		.word	.L8+1
 253 0050 B9020000 		.word	.L8+1
 254 0054 B9020000 		.word	.L8+1
 255 0058 B9020000 		.word	.L8+1
 256 005c B9020000 		.word	.L8+1
 257 0060 B9020000 		.word	.L8+1
 258 0064 B9020000 		.word	.L8+1
 259 0068 B9020000 		.word	.L8+1
 260 006c B9020000 		.word	.L8+1
 261 0070 B9020000 		.word	.L8+1
 262 0074 B9020000 		.word	.L8+1
 263 0078 B9020000 		.word	.L8+1
 264 007c B9020000 		.word	.L8+1
 265 0080 B9020000 		.word	.L8+1
 266 0084 B9020000 		.word	.L8+1
 267 0088 B9020000 		.word	.L8+1
 268 008c B9020000 		.word	.L8+1
 269 0090 B9020000 		.word	.L8+1
 270 0094 B9020000 		.word	.L8+1
 271 0098 B9020000 		.word	.L8+1
 272 009c B9020000 		.word	.L8+1
 273 00a0 B9020000 		.word	.L8+1
 274 00a4 B9020000 		.word	.L8+1
 275 00a8 B9020000 		.word	.L8+1
 276 00ac B9020000 		.word	.L8+1
 277 00b0 B9020000 		.word	.L8+1
ARM GAS  C:\Users\Jonah\AppData\Local\Temp\cc7HOeJf.s 			page 9


 278 00b4 B9020000 		.word	.L8+1
 279 00b8 B9020000 		.word	.L8+1
 280 00bc B9020000 		.word	.L8+1
 281 00c0 B9020000 		.word	.L8+1
 282 00c4 B9020000 		.word	.L8+1
 283 00c8 B9020000 		.word	.L8+1
 284 00cc B9020000 		.word	.L8+1
 285 00d0 B9020000 		.word	.L8+1
 286 00d4 B9020000 		.word	.L8+1
 287 00d8 B9020000 		.word	.L8+1
 288 00dc B9020000 		.word	.L8+1
 289 00e0 B9020000 		.word	.L8+1
 290 00e4 B9020000 		.word	.L8+1
 291 00e8 B9020000 		.word	.L8+1
 292 00ec B9020000 		.word	.L8+1
 293 00f0 B9020000 		.word	.L8+1
 294 00f4 B9020000 		.word	.L8+1
 295 00f8 B9020000 		.word	.L8+1
 296 00fc B9020000 		.word	.L8+1
 297 0100 B9020000 		.word	.L8+1
 298 0104 B9020000 		.word	.L8+1
 299 0108 B9020000 		.word	.L8+1
 300 010c B9020000 		.word	.L8+1
 301 0110 B9020000 		.word	.L8+1
 302 0114 B9020000 		.word	.L8+1
 303 0118 B9020000 		.word	.L8+1
 304 011c B9020000 		.word	.L8+1
 305 0120 B9020000 		.word	.L8+1
 306 0124 B9020000 		.word	.L8+1
 307 0128 B9020000 		.word	.L8+1
 308 012c B9020000 		.word	.L8+1
 309 0130 B9020000 		.word	.L8+1
 310 0134 B9020000 		.word	.L8+1
 311 0138 B9020000 		.word	.L8+1
 312 013c B9020000 		.word	.L8+1
 313 0140 B9020000 		.word	.L8+1
 314 0144 B9020000 		.word	.L8+1
 315 0148 B9020000 		.word	.L8+1
 316 014c 8B020000 		.word	.L11+1
 317 0150 B9020000 		.word	.L8+1
 318 0154 B9020000 		.word	.L8+1
 319 0158 B9020000 		.word	.L8+1
 320 015c B9020000 		.word	.L8+1
 321 0160 AF020000 		.word	.L12+1
 322 0164 B9020000 		.word	.L8+1
 323 0168 B9020000 		.word	.L8+1
 324 016c B9020000 		.word	.L8+1
 325 0170 9B020000 		.word	.L13+1
 326 0174 B9020000 		.word	.L8+1
 327 0178 B9020000 		.word	.L8+1
 328 017c B9020000 		.word	.L8+1
 329 0180 B9020000 		.word	.L8+1
 330 0184 B9020000 		.word	.L8+1
 331 0188 53020000 		.word	.L14+1
 332 018c 25020000 		.word	.L15+1
 333 0190 B9020000 		.word	.L8+1
 334 0194 B9020000 		.word	.L8+1
ARM GAS  C:\Users\Jonah\AppData\Local\Temp\cc7HOeJf.s 			page 10


 335 0198 B9020000 		.word	.L8+1
 336 019c A5020000 		.word	.L16+1
 337 01a0 93020000 		.word	.L17+1
 338 01a4 B9020000 		.word	.L8+1
 339 01a8 B9020000 		.word	.L8+1
 340 01ac B9020000 		.word	.L8+1
 341 01b0 B9020000 		.word	.L8+1
 342 01b4 B9020000 		.word	.L8+1
 343 01b8 B9020000 		.word	.L8+1
 344 01bc B9020000 		.word	.L8+1
 345 01c0 B9020000 		.word	.L8+1
 346 01c4 B9020000 		.word	.L8+1
 347 01c8 B9020000 		.word	.L8+1
 348 01cc 8B020000 		.word	.L11+1
 349 01d0 B9020000 		.word	.L8+1
 350 01d4 B9020000 		.word	.L8+1
 351 01d8 B9020000 		.word	.L8+1
 352 01dc B9020000 		.word	.L8+1
 353 01e0 AF020000 		.word	.L12+1
 354 01e4 B9020000 		.word	.L8+1
 355 01e8 B9020000 		.word	.L8+1
 356 01ec B9020000 		.word	.L8+1
 357 01f0 9B020000 		.word	.L13+1
 358 01f4 B9020000 		.word	.L8+1
 359 01f8 B9020000 		.word	.L8+1
 360 01fc B9020000 		.word	.L8+1
 361 0200 B9020000 		.word	.L8+1
 362 0204 B9020000 		.word	.L8+1
 363 0208 53020000 		.word	.L14+1
 364 020c 25020000 		.word	.L15+1
 365 0210 B9020000 		.word	.L8+1
 366 0214 B9020000 		.word	.L8+1
 367 0218 B9020000 		.word	.L8+1
 368 021c A5020000 		.word	.L16+1
 369 0220 93020000 		.word	.L17+1
 370              		.p2align 1
 371              	.L15:
 159:.\main.c      ****     {
 160:.\main.c      ****         case 0:
 161:.\main.c      ****             //no new data
 162:.\main.c      ****             break;
 163:.\main.c      ****         case 'S':
 164:.\main.c      ****         case 's':
 165:.\main.c      ****             //switch flag for inputting degrees, next characters are numbers for servo degrees
 166:.\main.c      ****             inputting_degrees = true;
 372              		.loc 1 166 0
 373 0224 374B     		ldr	r3, .L22+12
 374 0226 0122     		movs	r2, #1
 375 0228 1A70     		strb	r2, [r3]
 167:.\main.c      ****             degree = 0;
 376              		.loc 1 167 0
 377 022a 374B     		ldr	r3, .L22+16
 378 022c 0022     		movs	r2, #0
 379 022e 1A60     		str	r2, [r3]
 168:.\main.c      ****             digit_place = 0;
 380              		.loc 1 168 0
 381 0230 364B     		ldr	r3, .L22+20
ARM GAS  C:\Users\Jonah\AppData\Local\Temp\cc7HOeJf.s 			page 11


 382 0232 0022     		movs	r2, #0
 383 0234 1A60     		str	r2, [r3]
 169:.\main.c      ****             counter = 0;
 384              		.loc 1 169 0
 385 0236 364B     		ldr	r3, .L22+24
 386 0238 0022     		movs	r2, #0
 387 023a 1A60     		str	r2, [r3]
 170:.\main.c      ****             
 171:.\main.c      ****             sprintf(TransmitBuffer, "Receiving degrees, digitplace: %d\r\n", digit_place);
 388              		.loc 1 171 0
 389 023c 334B     		ldr	r3, .L22+20
 390 023e 1B68     		ldr	r3, [r3]
 391 0240 2E48     		ldr	r0, .L22+4
 392 0242 3449     		ldr	r1, .L22+28
 393 0244 1A46     		mov	r2, r3
 394 0246 FFF7FEFF 		bl	sprintf
 172:.\main.c      ****             UART_1_PutString(TransmitBuffer);
 395              		.loc 1 172 0
 396 024a 2C48     		ldr	r0, .L22+4
 397 024c FFF7FEFF 		bl	UART_1_PutString
 173:.\main.c      ****             break;
 398              		.loc 1 173 0
 399 0250 39E0     		b	.L18
 400              	.L14:
 174:.\main.c      ****         case 'R':
 175:.\main.c      ****         case 'r':
 176:.\main.c      ****             //Reads data and sends it to UART
 177:.\main.c      ****             if(ADC_DelSig_1_IsEndConversion(ADC_DelSig_1_RETURN_STATUS)) {
 401              		.loc 1 177 0
 402 0252 0120     		movs	r0, #1
 403 0254 FFF7FEFF 		bl	ADC_DelSig_1_IsEndConversion
 404 0258 0346     		mov	r3, r0
 405 025a 002B     		cmp	r3, #0
 406 025c 14D0     		beq	.L19
 178:.\main.c      ****                 //adcOut = ADC_DelSig_1_CountsTo_mVolts(ADC_DelSig_1_GetResult16());
 179:.\main.c      ****                 adcOut = ADC_DelSig_1_CountsTo_mVolts(ADC_DelSig_1_GetResult8());
 407              		.loc 1 179 0
 408 025e FFF7FEFF 		bl	ADC_DelSig_1_GetResult8
 409 0262 0346     		mov	r3, r0
 410 0264 1846     		mov	r0, r3
 411 0266 FFF7FEFF 		bl	ADC_DelSig_1_CountsTo_mVolts
 412 026a 0346     		mov	r3, r0
 413 026c 1A46     		mov	r2, r3
 414 026e 2A4B     		ldr	r3, .L22+32
 415 0270 1A60     		str	r2, [r3]
 180:.\main.c      ****                 sprintf(TransmitBuffer, "Single ADC Read: %lu\r\n", adcOut);
 416              		.loc 1 180 0
 417 0272 294B     		ldr	r3, .L22+32
 418 0274 1B68     		ldr	r3, [r3]
 419 0276 2148     		ldr	r0, .L22+4
 420 0278 2849     		ldr	r1, .L22+36
 421 027a 1A46     		mov	r2, r3
 422 027c FFF7FEFF 		bl	sprintf
 181:.\main.c      ****                 UART_1_PutString(TransmitBuffer);
 423              		.loc 1 181 0
 424 0280 1E48     		ldr	r0, .L22+4
 425 0282 FFF7FEFF 		bl	UART_1_PutString
ARM GAS  C:\Users\Jonah\AppData\Local\Temp\cc7HOeJf.s 			page 12


 182:.\main.c      ****             }
 183:.\main.c      ****             break;
 426              		.loc 1 183 0
 427 0286 1EE0     		b	.L18
 428              	.L19:
 429 0288 1DE0     		b	.L18
 430              	.L11:
 184:.\main.c      ****         case 'C':
 185:.\main.c      ****         case 'c':
 186:.\main.c      ****             //Continuously sends data
 187:.\main.c      ****             continuousSending = true;
 431              		.loc 1 187 0
 432 028a 254B     		ldr	r3, .L22+40
 433 028c 0122     		movs	r2, #1
 434 028e 1A70     		strb	r2, [r3]
 188:.\main.c      ****             break;
 435              		.loc 1 188 0
 436 0290 19E0     		b	.L18
 437              	.L17:
 189:.\main.c      ****         case 'X':
 190:.\main.c      ****         case 'x':
 191:.\main.c      ****             //Cancels continuously sending data
 192:.\main.c      ****             continuousSending = false;
 438              		.loc 1 192 0
 439 0292 234B     		ldr	r3, .L22+40
 440 0294 0022     		movs	r2, #0
 441 0296 1A70     		strb	r2, [r3]
 193:.\main.c      ****             break;
 442              		.loc 1 193 0
 443 0298 15E0     		b	.L18
 444              	.L13:
 194:.\main.c      ****         case 'l':
 195:.\main.c      ****         case 'L':
 196:.\main.c      ****             Sing(300);
 445              		.loc 1 196 0
 446 029a 4FF49670 		mov	r0, #300
 447 029e FFF7FEFF 		bl	Sing
 197:.\main.c      ****             break;
 448              		.loc 1 197 0
 449 02a2 10E0     		b	.L18
 450              	.L16:
 198:.\main.c      ****         case 'W':
 199:.\main.c      ****         case 'w':
 200:.\main.c      ****             Sing(600);
 451              		.loc 1 200 0
 452 02a4 4FF41670 		mov	r0, #600
 453 02a8 FFF7FEFF 		bl	Sing
 201:.\main.c      ****             break;
 454              		.loc 1 201 0
 455 02ac 0BE0     		b	.L18
 456              	.L12:
 202:.\main.c      ****         case 'h':
 203:.\main.c      ****         case 'H':
 204:.\main.c      ****             Sing(55000);
 457              		.loc 1 204 0
 458 02ae 4DF2D860 		movw	r0, #55000
 459 02b2 FFF7FEFF 		bl	Sing
ARM GAS  C:\Users\Jonah\AppData\Local\Temp\cc7HOeJf.s 			page 13


 205:.\main.c      ****             break;
 460              		.loc 1 205 0
 461 02b6 06E0     		b	.L18
 462              	.L8:
 206:.\main.c      ****         default:
 207:.\main.c      ****             // Place error handling code here
 208:.\main.c      ****             //lol no
 209:.\main.c      ****             invalid = true;
 463              		.loc 1 209 0
 464 02b8 0123     		movs	r3, #1
 465 02ba FB71     		strb	r3, [r7, #7]
 210:.\main.c      ****             
 211:.\main.c      ****             
 212:.\main.c      ****             //ok maybe we'll print something
 213:.\main.c      ****             UART_1_PutString("Invalid command!\r\n");
 466              		.loc 1 213 0
 467 02bc 1948     		ldr	r0, .L22+44
 468 02be FFF7FEFF 		bl	UART_1_PutString
 214:.\main.c      ****             break;    
 469              		.loc 1 214 0
 470 02c2 00E0     		b	.L18
 471              	.L21:
 162:.\main.c      ****         case 'S':
 472              		.loc 1 162 0
 473 02c4 00BF     		nop
 474              	.L18:
 215:.\main.c      ****     }
 216:.\main.c      ****     
 217:.\main.c      ****     if (invalid && inputting_degrees) {
 475              		.loc 1 217 0
 476 02c6 FB79     		ldrb	r3, [r7, #7]	@ zero_extendqisi2
 477 02c8 002B     		cmp	r3, #0
 478 02ca 11D0     		beq	.L7
 479              		.loc 1 217 0 is_stmt 0 discriminator 1
 480 02cc 0D4B     		ldr	r3, .L22+12
 481 02ce 1B78     		ldrb	r3, [r3]	@ zero_extendqisi2
 482 02d0 002B     		cmp	r3, #0
 483 02d2 0DD0     		beq	.L7
 484              	.LBB2:
 218:.\main.c      ****         //assume its a number
 219:.\main.c      ****         int num = recvChar - 48;
 485              		.loc 1 219 0 is_stmt 1
 486 02d4 084B     		ldr	r3, .L22
 487 02d6 1B78     		ldrb	r3, [r3]	@ zero_extendqisi2
 488 02d8 303B     		subs	r3, r3, #48
 489 02da 3B60     		str	r3, [r7]
 220:.\main.c      ****         
 221:.\main.c      ****         Turn_servo_degrees(num * 15);
 490              		.loc 1 221 0
 491 02dc 3A68     		ldr	r2, [r7]
 492 02de 1346     		mov	r3, r2
 493 02e0 1B01     		lsls	r3, r3, #4
 494 02e2 9B1A     		subs	r3, r3, r2
 495 02e4 1846     		mov	r0, r3
 496 02e6 FFF7FEFF 		bl	Turn_servo_degrees
 222:.\main.c      ****         /*
 223:.\main.c      ****         sprintf(TransmitBuffer, "got this as num: %d\r\n", num);
ARM GAS  C:\Users\Jonah\AppData\Local\Temp\cc7HOeJf.s 			page 14


 224:.\main.c      ****         UART_1_PutString(TransmitBuffer);
 225:.\main.c      ****         sprintf(TransmitBuffer, "got this as counter: %d\r\n", counter);
 226:.\main.c      ****         UART_1_PutString(TransmitBuffer);
 227:.\main.c      ****         sprintf(TransmitBuffer, "got this as degree: %d\r\n", degree);
 228:.\main.c      ****         UART_1_PutString(TransmitBuffer);
 229:.\main.c      ****         */
 230:.\main.c      ****         
 231:.\main.c      ****         inputting_degrees = false;
 497              		.loc 1 231 0
 498 02ea 064B     		ldr	r3, .L22+12
 499 02ec 0022     		movs	r2, #0
 500 02ee 1A70     		strb	r2, [r3]
 501              	.L7:
 502              	.LBE2:
 232:.\main.c      ****     }
 233:.\main.c      **** 
 234:.\main.c      ****         
 235:.\main.c      ****         /*
 236:.\main.c      ****         //otherwise w're listening for the numbers.  'X' means stop
 237:.\main.c      ****     } else if (recvChar == 'x' || recvChar == 'X' ) {
 238:.\main.c      ****         inputting_degrees = false;
 239:.\main.c      ****         digit_place = 0;
 240:.\main.c      ****         Turn_servo_degrees(degree);
 241:.\main.c      ****     } else {
 242:.\main.c      ****         //lastly we're accepting the input for the servo degrees
 243:.\main.c      ****         //expecting numbers here
 244:.\main.c      ****         degree = recvChar * 10;
 245:.\main.c      ****         
 246:.\main.c      ****         digit_place++;
 247:.\main.c      ****         
 248:.\main.c      ****         sprintf(TransmitBuffer, "recieved this char: %d, digit place: %d\r\n", recvChar, digit_plac
 249:.\main.c      ****         UART_1_PutString(TransmitBuffer);
 250:.\main.c      ****         sprintf(TransmitBuffer, "Processing degree input, this is our degree: %d\r\n", degree);
 251:.\main.c      ****         UART_1_PutString(TransmitBuffer);
 252:.\main.c      **** 
 253:.\main.c      ****     
 254:.\main.c      ****         
 255:.\main.c      ****         */
 256:.\main.c      ****         
 257:.\main.c      **** }
 503              		.loc 1 257 0
 504 02f0 0837     		adds	r7, r7, #8
 505              		.cfi_def_cfa_offset 8
 506 02f2 BD46     		mov	sp, r7
 507              		.cfi_def_cfa_register 13
 508              		@ sp needed
 509 02f4 80BD     		pop	{r7, pc}
 510              	.L23:
 511 02f6 00BF     		.align	2
 512              	.L22:
 513 02f8 00000000 		.word	recvChar
 514 02fc 00000000 		.word	TransmitBuffer
 515 0300 00000000 		.word	.LC0
 516 0304 00000000 		.word	inputting_degrees
 517 0308 00000000 		.word	degree
 518 030c 00000000 		.word	digit_place
 519 0310 00000000 		.word	counter
ARM GAS  C:\Users\Jonah\AppData\Local\Temp\cc7HOeJf.s 			page 15


 520 0314 1C000000 		.word	.LC1
 521 0318 00000000 		.word	adcOut
 522 031c 40000000 		.word	.LC2
 523 0320 00000000 		.word	continuousSending
 524 0324 58000000 		.word	.LC3
 525              		.cfi_endproc
 526              	.LFE65:
 527              		.size	ReadSerial, .-ReadSerial
 528              		.section	.rodata
 529 006b 00       		.align	2
 530              	.LC4:
 531 006c 434F4D20 		.ascii	"COM Port Open\015\012\000"
 531      506F7274 
 531      204F7065 
 531      6E0D0A00 
 532              		.align	2
 533              	.LC5:
 534 007c 496E6974 		.ascii	"Initialized read: %lu mV\015\012\000"
 534      69616C69 
 534      7A656420 
 534      72656164 
 534      3A20256C 
 535              		.section	.text.main,"ax",%progbits
 536              		.align	2
 537              		.global	main
 538              		.thumb
 539              		.thumb_func
 540              		.type	main, %function
 541              	main:
 542              	.LFB66:
 258:.\main.c      **** 
 259:.\main.c      **** 
 260:.\main.c      **** 
 261:.\main.c      **** int main()
 262:.\main.c      **** {
 543              		.loc 1 262 0
 544              		.cfi_startproc
 545              		@ args = 0, pretend = 0, frame = 0
 546              		@ frame_needed = 1, uses_anonymous_args = 0
 547 0000 80B5     		push	{r7, lr}
 548              		.cfi_def_cfa_offset 8
 549              		.cfi_offset 7, -8
 550              		.cfi_offset 14, -4
 551 0002 00AF     		add	r7, sp, #0
 552              		.cfi_def_cfa_register 7
 263:.\main.c      ****     
 264:.\main.c      ****     
 265:.\main.c      ****     
 266:.\main.c      **** 
 267:.\main.c      **** 
 268:.\main.c      **** /* DMA Configuration for DMA_1 */
 269:.\main.c      ****     DMA_1_Chan = DMA_1_DmaInitialize(DMA_1_BYTES_PER_BURST, DMA_1_REQUEST_PER_BURST, 
 553              		.loc 1 269 0
 554 0004 0120     		movs	r0, #1
 555 0006 0121     		movs	r1, #1
 556 0008 4FF48042 		mov	r2, #16384
 557 000c 41F6FF73 		movw	r3, #8191
ARM GAS  C:\Users\Jonah\AppData\Local\Temp\cc7HOeJf.s 			page 16


 558 0010 FFF7FEFF 		bl	DMA_1_DmaInitialize
 559 0014 0346     		mov	r3, r0
 560 0016 1A46     		mov	r2, r3
 561 0018 2E4B     		ldr	r3, .L26
 562 001a 1A70     		strb	r2, [r3]
 270:.\main.c      ****     HI16(DMA_1_SRC_BASE), HI16(DMA_1_DST_BASE));
 271:.\main.c      ****     DMA_1_TD[0] = CyDmaTdAllocate();
 563              		.loc 1 271 0
 564 001c FFF7FEFF 		bl	CyDmaTdAllocate
 565 0020 0346     		mov	r3, r0
 566 0022 1A46     		mov	r2, r3
 567 0024 2C4B     		ldr	r3, .L26+4
 568 0026 1A70     		strb	r2, [r3]
 272:.\main.c      ****     CyDmaTdSetConfiguration(DMA_1_TD[0], 1024, DMA_1_TD[0], DMA_1__TD_TERMOUT_EN | TD_INC_DST_ADR);
 569              		.loc 1 272 0
 570 0028 2B4B     		ldr	r3, .L26+4
 571 002a 1A78     		ldrb	r2, [r3]	@ zero_extendqisi2
 572 002c 2A4B     		ldr	r3, .L26+4
 573 002e 1B78     		ldrb	r3, [r3]	@ zero_extendqisi2
 574 0030 1046     		mov	r0, r2
 575 0032 4FF48061 		mov	r1, #1024
 576 0036 1A46     		mov	r2, r3
 577 0038 0623     		movs	r3, #6
 578 003a FFF7FEFF 		bl	CyDmaTdSetConfiguration
 273:.\main.c      ****     CyDmaTdSetAddress(DMA_1_TD[0], LO16((uint32)ADC_DelSig_1_DEC_SAMP_PTR), LO16((uint32)DMA_ARRAY)
 579              		.loc 1 273 0
 580 003e 264B     		ldr	r3, .L26+4
 581 0040 1A78     		ldrb	r2, [r3]	@ zero_extendqisi2
 582 0042 264B     		ldr	r3, .L26+8
 583 0044 9BB2     		uxth	r3, r3
 584 0046 1046     		mov	r0, r2
 585 0048 44F61061 		movw	r1, #19984
 586 004c 1A46     		mov	r2, r3
 587 004e FFF7FEFF 		bl	CyDmaTdSetAddress
 274:.\main.c      ****     CyDmaChSetInitialTd(DMA_1_Chan, DMA_1_TD[0]);
 588              		.loc 1 274 0
 589 0052 204B     		ldr	r3, .L26
 590 0054 1A78     		ldrb	r2, [r3]	@ zero_extendqisi2
 591 0056 204B     		ldr	r3, .L26+4
 592 0058 1B78     		ldrb	r3, [r3]	@ zero_extendqisi2
 593 005a 1046     		mov	r0, r2
 594 005c 1946     		mov	r1, r3
 595 005e FFF7FEFF 		bl	CyDmaChSetInitialTd
 275:.\main.c      ****     CyDmaChEnable(DMA_1_Chan, 1);
 596              		.loc 1 275 0
 597 0062 1C4B     		ldr	r3, .L26
 598 0064 1B78     		ldrb	r3, [r3]	@ zero_extendqisi2
 599 0066 1846     		mov	r0, r3
 600 0068 0121     		movs	r1, #1
 601 006a FFF7FEFF 		bl	CyDmaChEnable
 276:.\main.c      **** 
 277:.\main.c      **** 
 278:.\main.c      **** 
 279:.\main.c      **** 
 280:.\main.c      **** 
 281:.\main.c      **** 
 282:.\main.c      ****     isr_1_StartEx(ReadSerial);      //attach the interrupt
ARM GAS  C:\Users\Jonah\AppData\Local\Temp\cc7HOeJf.s 			page 17


 602              		.loc 1 282 0
 603 006e 1C48     		ldr	r0, .L26+12
 604 0070 FFF7FEFF 		bl	isr_1_StartEx
 283:.\main.c      ****     dma_interrupt_StartEx(DMA_Handler); //attach DMA interrupt
 605              		.loc 1 283 0
 606 0074 1B48     		ldr	r0, .L26+16
 607 0076 FFF7FEFF 		bl	dma_interrupt_StartEx
 284:.\main.c      ****     CYGlobalIntEnable;              //this one line wasted like an hour
 608              		.loc 1 284 0
 609              	@ 284 ".\main.c" 1
 610 007a 62B6     		CPSIE   i
 611              	@ 0 "" 2
 285:.\main.c      ****     
 286:.\main.c      ****     //start the stupid hardware thingies
 287:.\main.c      ****     Speaker_PWM_Start();
 612              		.loc 1 287 0
 613              		.thumb
 614 007c FFF7FEFF 		bl	Speaker_PWM_Start
 288:.\main.c      ****     Servo_PWM_Start();
 615              		.loc 1 288 0
 616 0080 FFF7FEFF 		bl	Servo_PWM_Start
 289:.\main.c      ****     ADC_DelSig_1_Start();
 617              		.loc 1 289 0
 618 0084 FFF7FEFF 		bl	ADC_DelSig_1_Start
 290:.\main.c      ****     UART_1_Start();                             //does anyone even read these?
 619              		.loc 1 290 0
 620 0088 FFF7FEFF 		bl	UART_1_Start
 291:.\main.c      ****     UART_1_SetRxInterruptMode(UART_1_RX_STS_FIFO_NOTEMPTY);     //enable interrupts via software
 621              		.loc 1 291 0
 622 008c 2020     		movs	r0, #32
 623 008e FFF7FEFF 		bl	UART_1_SetRxInterruptMode
 292:.\main.c      **** 
 293:.\main.c      ****     WaveDAC8_1_Start();
 624              		.loc 1 293 0
 625 0092 FFF7FEFF 		bl	WaveDAC8_1_Start
 294:.\main.c      ****     
 295:.\main.c      ****     //initialize variables
 296:.\main.c      ****     
 297:.\main.c      ****     
 298:.\main.c      ****     //Start ADC Conversion(s)
 299:.\main.c      ****     ADC_DelSig_1_StartConvert();
 626              		.loc 1 299 0
 627 0096 FFF7FEFF 		bl	ADC_DelSig_1_StartConvert
 300:.\main.c      ****     Waveform_Reg_Write(waveForm);         //initialize wavesignal for waveform DAC
 628              		.loc 1 300 0
 629 009a 134B     		ldr	r3, .L26+20
 630 009c 1B78     		ldrb	r3, [r3]	@ zero_extendqisi2
 631 009e 1846     		mov	r0, r3
 632 00a0 FFF7FEFF 		bl	Waveform_Reg_Write
 301:.\main.c      **** 
 302:.\main.c      ****     
 303:.\main.c      ****     // Send message to verify COM port is connected properly 
 304:.\main.c      ****     UART_1_PutString("COM Port Open\r\n");
 633              		.loc 1 304 0
 634 00a4 1148     		ldr	r0, .L26+24
 635 00a6 FFF7FEFF 		bl	UART_1_PutString
 305:.\main.c      ****     
ARM GAS  C:\Users\Jonah\AppData\Local\Temp\cc7HOeJf.s 			page 18


 306:.\main.c      ****     adcOut = ADC_DelSig_1_CountsTo_mVolts(ADC_DelSig_1_GetResult8());
 636              		.loc 1 306 0
 637 00aa FFF7FEFF 		bl	ADC_DelSig_1_GetResult8
 638 00ae 0346     		mov	r3, r0
 639 00b0 1846     		mov	r0, r3
 640 00b2 FFF7FEFF 		bl	ADC_DelSig_1_CountsTo_mVolts
 641 00b6 0346     		mov	r3, r0
 642 00b8 1A46     		mov	r2, r3
 643 00ba 0D4B     		ldr	r3, .L26+28
 644 00bc 1A60     		str	r2, [r3]
 307:.\main.c      ****     sprintf(TransmitBuffer, "Initialized read: %lu mV\r\n", adcOut);
 645              		.loc 1 307 0
 646 00be 0C4B     		ldr	r3, .L26+28
 647 00c0 1B68     		ldr	r3, [r3]
 648 00c2 0C48     		ldr	r0, .L26+32
 649 00c4 0C49     		ldr	r1, .L26+36
 650 00c6 1A46     		mov	r2, r3
 651 00c8 FFF7FEFF 		bl	sprintf
 308:.\main.c      ****     UART_1_PutString(TransmitBuffer);
 652              		.loc 1 308 0
 653 00cc 0948     		ldr	r0, .L26+32
 654 00ce FFF7FEFF 		bl	UART_1_PutString
 655              	.L25:
 309:.\main.c      ****     
 310:.\main.c      ****     //for loop polls ADC continuously if the proper mode is selected
 311:.\main.c      ****     for(;;)
 312:.\main.c      ****     {     
 313:.\main.c      ****         //check for proper mode
 314:.\main.c      ****         if(false) {
 315:.\main.c      ****             if(ADC_DelSig_1_IsEndConversion(ADC_DelSig_1_RETURN_STATUS))    //poll ADC
 316:.\main.c      ****             {
 317:.\main.c      **** 
 318:.\main.c      ****                 //adcOut = ADC_DelSig_1_CountsTo_mVolts(ADC_DelSig_1_GetResult16());  //save output
 319:.\main.c      ****                 adcOut = ADC_DelSig_1_CountsTo_mVolts(ADC_DelSig_1_GetResult8());
 320:.\main.c      ****                 //print data to UART
 321:.\main.c      ****                 sprintf(TransmitBuffer, "Continuous ADC Read: %lu mV\r\n", adcOut);
 322:.\main.c      ****                 UART_1_PutString(TransmitBuffer);
 323:.\main.c      ****                 
 324:.\main.c      ****             }
 325:.\main.c      ****         }
 326:.\main.c      ****     }
 656              		.loc 1 326 0
 657 00d2 FEE7     		b	.L25
 658              	.L27:
 659              		.align	2
 660              	.L26:
 661 00d4 00000000 		.word	DMA_1_Chan
 662 00d8 00000000 		.word	DMA_1_TD
 663 00dc 00000000 		.word	DMA_ARRAY
 664 00e0 00000000 		.word	ReadSerial
 665 00e4 00000000 		.word	DMA_Handler
 666 00e8 00000000 		.word	waveForm
 667 00ec 6C000000 		.word	.LC4
 668 00f0 00000000 		.word	adcOut
 669 00f4 00000000 		.word	TransmitBuffer
 670 00f8 7C000000 		.word	.LC5
 671              		.cfi_endproc
ARM GAS  C:\Users\Jonah\AppData\Local\Temp\cc7HOeJf.s 			page 19


 672              	.LFE66:
 673              		.size	main, .-main
 674              		.section	.rodata
 675 0097 00       		.align	2
 676              	.LC6:
 677 0098 77726974 		.ascii	"writing these degrees to servo: %d\015\012\000"
 677      696E6720 
 677      74686573 
 677      65206465 
 677      67726565 
 678              		.section	.text.Turn_servo_degrees,"ax",%progbits
 679              		.align	2
 680              		.global	Turn_servo_degrees
 681              		.thumb
 682              		.thumb_func
 683              		.type	Turn_servo_degrees, %function
 684              	Turn_servo_degrees:
 685              	.LFB67:
 327:.\main.c      ****     return 0;
 328:.\main.c      **** }
 329:.\main.c      **** 
 330:.\main.c      **** 
 331:.\main.c      **** int Turn_servo_degrees(int degree) {
 686              		.loc 1 331 0
 687              		.cfi_startproc
 688              		@ args = 0, pretend = 0, frame = 16
 689              		@ frame_needed = 1, uses_anonymous_args = 0
 690 0000 80B5     		push	{r7, lr}
 691              		.cfi_def_cfa_offset 8
 692              		.cfi_offset 7, -8
 693              		.cfi_offset 14, -4
 694 0002 84B0     		sub	sp, sp, #16
 695              		.cfi_def_cfa_offset 24
 696 0004 00AF     		add	r7, sp, #0
 697              		.cfi_def_cfa_register 7
 698 0006 7860     		str	r0, [r7, #4]
 332:.\main.c      ****     
 333:.\main.c      ****     
 334:.\main.c      ****     
 335:.\main.c      ****     int amt = degree * 255 / 360;
 699              		.loc 1 335 0
 700 0008 7A68     		ldr	r2, [r7, #4]
 701 000a 1346     		mov	r3, r2
 702 000c 1B02     		lsls	r3, r3, #8
 703 000e 9B1A     		subs	r3, r3, r2
 704 0010 0C4A     		ldr	r2, .L30
 705 0012 82FB0312 		smull	r1, r2, r2, r3
 706 0016 1A44     		add	r2, r2, r3
 707 0018 1212     		asrs	r2, r2, #8
 708 001a DB17     		asrs	r3, r3, #31
 709 001c D31A     		subs	r3, r2, r3
 710 001e FB60     		str	r3, [r7, #12]
 336:.\main.c      ****     Servo_PWM_WriteCompare(amt);
 711              		.loc 1 336 0
 712 0020 FB68     		ldr	r3, [r7, #12]
 713 0022 DBB2     		uxtb	r3, r3
 714 0024 1846     		mov	r0, r3
ARM GAS  C:\Users\Jonah\AppData\Local\Temp\cc7HOeJf.s 			page 20


 715 0026 FFF7FEFF 		bl	Servo_PWM_WriteCompare
 337:.\main.c      ****     
 338:.\main.c      ****     sprintf(TransmitBuffer, "writing these degrees to servo: %d\r\n", amt);
 716              		.loc 1 338 0
 717 002a 0748     		ldr	r0, .L30+4
 718 002c 0749     		ldr	r1, .L30+8
 719 002e FA68     		ldr	r2, [r7, #12]
 720 0030 FFF7FEFF 		bl	sprintf
 339:.\main.c      ****     UART_1_PutString(TransmitBuffer);
 721              		.loc 1 339 0
 722 0034 0448     		ldr	r0, .L30+4
 723 0036 FFF7FEFF 		bl	UART_1_PutString
 340:.\main.c      ****     
 341:.\main.c      ****     return 0;    
 724              		.loc 1 341 0
 725 003a 0023     		movs	r3, #0
 342:.\main.c      **** }
 726              		.loc 1 342 0
 727 003c 1846     		mov	r0, r3
 728 003e 1037     		adds	r7, r7, #16
 729              		.cfi_def_cfa_offset 8
 730 0040 BD46     		mov	sp, r7
 731              		.cfi_def_cfa_register 13
 732              		@ sp needed
 733 0042 80BD     		pop	{r7, pc}
 734              	.L31:
 735              		.align	2
 736              	.L30:
 737 0044 B7600BB6 		.word	-1240768329
 738 0048 00000000 		.word	TransmitBuffer
 739 004c 98000000 		.word	.LC6
 740              		.cfi_endproc
 741              	.LFE67:
 742              		.size	Turn_servo_degrees, .-Turn_servo_degrees
 743              		.section	.rodata
 744 00bd 000000   		.align	2
 745              	.LC7:
 746 00c0 73696E67 		.ascii	"singing with value: %d\015\012\000"
 746      696E6720 
 746      77697468 
 746      2076616C 
 746      75653A20 
 747 00d9 000000   		.section	.text.Sing,"ax",%progbits
 748              		.align	2
 749              		.global	Sing
 750              		.thumb
 751              		.thumb_func
 752              		.type	Sing, %function
 753              	Sing:
 754              	.LFB68:
 343:.\main.c      **** 
 344:.\main.c      **** int Sing(int thing) {
 755              		.loc 1 344 0
 756              		.cfi_startproc
 757              		@ args = 0, pretend = 0, frame = 8
 758              		@ frame_needed = 1, uses_anonymous_args = 0
 759 0000 80B5     		push	{r7, lr}
ARM GAS  C:\Users\Jonah\AppData\Local\Temp\cc7HOeJf.s 			page 21


 760              		.cfi_def_cfa_offset 8
 761              		.cfi_offset 7, -8
 762              		.cfi_offset 14, -4
 763 0002 82B0     		sub	sp, sp, #8
 764              		.cfi_def_cfa_offset 16
 765 0004 00AF     		add	r7, sp, #0
 766              		.cfi_def_cfa_register 7
 767 0006 7860     		str	r0, [r7, #4]
 345:.\main.c      ****     sprintf(TransmitBuffer, "singing with value: %d\r\n", thing);
 768              		.loc 1 345 0
 769 0008 0848     		ldr	r0, .L34
 770 000a 0949     		ldr	r1, .L34+4
 771 000c 7A68     		ldr	r2, [r7, #4]
 772 000e FFF7FEFF 		bl	sprintf
 346:.\main.c      ****     UART_1_PutString(TransmitBuffer);
 773              		.loc 1 346 0
 774 0012 0648     		ldr	r0, .L34
 775 0014 FFF7FEFF 		bl	UART_1_PutString
 347:.\main.c      ****     
 348:.\main.c      ****     Speaker_PWM_WriteCompare(thing);   
 776              		.loc 1 348 0
 777 0018 7B68     		ldr	r3, [r7, #4]
 778 001a 9BB2     		uxth	r3, r3
 779 001c 1846     		mov	r0, r3
 780 001e FFF7FEFF 		bl	Speaker_PWM_WriteCompare
 349:.\main.c      ****     //Speaker_PWM_WritePeriod(thing);
 350:.\main.c      ****     
 351:.\main.c      ****     return 0;
 781              		.loc 1 351 0
 782 0022 0023     		movs	r3, #0
 352:.\main.c      **** }
 783              		.loc 1 352 0
 784 0024 1846     		mov	r0, r3
 785 0026 0837     		adds	r7, r7, #8
 786              		.cfi_def_cfa_offset 8
 787 0028 BD46     		mov	sp, r7
 788              		.cfi_def_cfa_register 13
 789              		@ sp needed
 790 002a 80BD     		pop	{r7, pc}
 791              	.L35:
 792              		.align	2
 793              	.L34:
 794 002c 00000000 		.word	TransmitBuffer
 795 0030 C0000000 		.word	.LC7
 796              		.cfi_endproc
 797              	.LFE68:
 798              		.size	Sing, .-Sing
 799              		.text
 800              	.Letext0:
 801              		.file 2 "c:\\program files (x86)\\cypress\\psoc creator\\3.3\\psoc creator\\import\\gnu\\arm\\4.9.
 802              		.file 3 "c:\\program files (x86)\\cypress\\psoc creator\\3.3\\psoc creator\\import\\gnu\\arm\\4.9.
 803              		.file 4 "Generated_Source\\PSoC5/cytypes.h"
 804              		.file 5 "Generated_Source\\PSoC5/core_cm3.h"