ARM GAS  C:\Users\Jonah\AppData\Local\Temp\ccZnvLT0.s 			page 1


   1              		.syntax unified
   2              		.cpu cortex-m3
   3              		.fpu softvfp
   4              		.eabi_attribute 20, 1
   5              		.eabi_attribute 21, 1
   6              		.eabi_attribute 23, 3
   7              		.eabi_attribute 24, 1
   8              		.eabi_attribute 25, 1
   9              		.eabi_attribute 26, 1
  10              		.eabi_attribute 30, 6
  11              		.eabi_attribute 34, 1
  12              		.eabi_attribute 18, 4
  13              		.thumb
  14              		.file	"main.c"
  15              		.text
  16              	.Ltext0:
  17              		.cfi_sections	.debug_frame
  18              		.global	debounce_on
  19              		.bss
  20              		.type	debounce_on, %object
  21              		.size	debounce_on, 1
  22              	debounce_on:
  23 0000 00       		.space	1
  24              		.global	btn_can_change
  25              		.type	btn_can_change, %object
  26              		.size	btn_can_change, 1
  27              	btn_can_change:
  28 0001 00       		.space	1
  29              		.global	dimming
  30              		.type	dimming, %object
  31              		.size	dimming, 1
  32              	dimming:
  33 0002 00       		.space	1
  34              		.global	toggle_light_time_ms
  35              		.data
  36              		.align	2
  37              		.type	toggle_light_time_ms, %object
  38              		.size	toggle_light_time_ms, 4
  39              	toggle_light_time_ms:
  40 0000 F4010000 		.word	500
  41              		.global	total_time_ms
  42              		.align	2
  43              		.type	total_time_ms, %object
  44              		.size	total_time_ms, 4
  45              	total_time_ms:
  46 0004 F4010000 		.word	500
  47              		.global	on_time_ms
  48              		.align	2
  49              		.type	on_time_ms, %object
  50              		.size	on_time_ms, 4
  51              	on_time_ms:
  52 0008 FA000000 		.word	250
  53              		.global	off_time_ms
  54              		.align	2
  55              		.type	off_time_ms, %object
  56              		.size	off_time_ms, 4
  57              	off_time_ms:
ARM GAS  C:\Users\Jonah\AppData\Local\Temp\ccZnvLT0.s 			page 2


  58 000c FA000000 		.word	250
  59              		.global	duty_cycle
  60              		.align	2
  61              		.type	duty_cycle, %object
  62              		.size	duty_cycle, 4
  63              	duty_cycle:
  64 0010 0000003F 		.word	1056964608
  65              		.comm	currentMode,1,1
  66              		.comm	previousMode,1,1
  67              		.section	.text.ToggleModes,"ax",%progbits
  68              		.align	2
  69              		.global	ToggleModes
  70              		.thumb
  71              		.thumb_func
  72              		.type	ToggleModes, %function
  73              	ToggleModes:
  74              	.LFB63:
  75              		.file 1 ".\\main.c"
   1:.\main.c      **** /******************************************************************************
   2:.\main.c      **** * Project Name		: CE95352 Blinking LED
   3:.\main.c      **** * File Name			: main.c
   4:.\main.c      **** * Version 			: **
   5:.\main.c      **** * Device Used		: CY8C5888LTI-LP097
   6:.\main.c      **** * Software Used		: PSoC Creator 3.1 SP2
   7:.\main.c      **** * Compiler    		: ARM GCC 4.8.4, ARM RVDS Generic, ARM MDK Generic
   8:.\main.c      **** * Related Hardware	: CY8CKIT059 PSoC 5 LP Prototyping Kit 
   9:.\main.c      **** * Owner				: KLMZ
  10:.\main.c      **** *
  11:.\main.c      **** ********************************************************************************
  12:.\main.c      **** * Copyright (2015), Cypress Semiconductor Corporation. All Rights Reserved.
  13:.\main.c      **** ********************************************************************************
  14:.\main.c      **** * This software is owned by Cypress Semiconductor Corporation (Cypress)
  15:.\main.c      **** * and is protected by and subject to worldwide patent protection (United
  16:.\main.c      **** * States and foreign), United States copyright laws and international treaty
  17:.\main.c      **** * provisions. Cypress hereby grants to licensee a personal, non-exclusive,
  18:.\main.c      **** * non-transferable license to copy, use, modify, create derivative works of,
  19:.\main.c      **** * and compile the Cypress Source Code and derivative works for the sole
  20:.\main.c      **** * purpose of creating custom software in support of licensee product to be
  21:.\main.c      **** * used only in conjunction with a Cypress integrated circuit as specified in
  22:.\main.c      **** * the applicable agreement. Any reproduction, modification, translation,
  23:.\main.c      **** * compilation, or representation of this software except as specified above 
  24:.\main.c      **** * is prohibited without the express written permission of Cypress.
  25:.\main.c      **** *
  26:.\main.c      **** * Disclaimer: CYPRESS MAKES NO WARRANTY OF ANY KIND, EXPRESS OR IMPLIED, WITH 
  27:.\main.c      **** * REGARD TO THIS MATERIAL, INCLUDING, BUT NOT LIMITED TO, THE IMPLIED 
  28:.\main.c      **** * WARRANTIES OF MERCHANTABILITY AND FITNESS FOR A PARTICULAR PURPOSE.
  29:.\main.c      **** * Cypress reserves the right to make changes without further notice to the 
  30:.\main.c      **** * materials described herein. Cypress does not assume any liability arising out 
  31:.\main.c      **** * of the application or use of any product or circuit described herein. Cypress 
  32:.\main.c      **** * does not authorize its products for use as critical components in life-support 
  33:.\main.c      **** * systems where a malfunction or failure may reasonably be expected to result in 
  34:.\main.c      **** * significant injury to the user. The inclusion of Cypress' product in a life-
  35:.\main.c      **** * support systems application implies that the manufacturer assumes all risk of 
  36:.\main.c      **** * such use and in doing so indemnifies Cypress against all charges. 
  37:.\main.c      **** *
  38:.\main.c      **** * Use of this Software may be limited by and subject to the applicable Cypress
  39:.\main.c      **** * software license agreement. 
ARM GAS  C:\Users\Jonah\AppData\Local\Temp\ccZnvLT0.s 			page 3


  40:.\main.c      **** *******************************************************************************/
  41:.\main.c      **** 
  42:.\main.c      **** #include <device.h>
  43:.\main.c      **** #include <stdio.h>
  44:.\main.c      **** #include <string.h>
  45:.\main.c      **** #include <unistd.h>
  46:.\main.c      **** #include <stdbool.h>
  47:.\main.c      **** #include <errno.h>
  48:.\main.c      **** 
  49:.\main.c      **** /*******************************************************************************
  50:.\main.c      **** * Function Name: main
  51:.\main.c      **** ********************************************************************************
  52:.\main.c      **** *
  53:.\main.c      **** * Summary:
  54:.\main.c      **** *  Software-controller PWM controls and LED to blink in 1s interval
  55:.\main.c      ****                            as well as control the brightness
  56:.\main.c      **** *
  57:.\main.c      **** * Parameters:
  58:.\main.c      **** *  None.
  59:.\main.c      **** *
  60:.\main.c      **** * Return:
  61:.\main.c      **** *  None.
  62:.\main.c      **** *
  63:.\main.c      **** 
  64:.\main.c      **** Partner Names: John Dempsey, Haitham Alzerma, Kwesi
  65:.\main.c      **** Partner Lab Group name: 3GL (3 Guys in a Lab)
  66:.\main.c      **** *******************************************************************************/
  67:.\main.c      **** 
  68:.\main.c      **** //CONSTANTS
  69:.\main.c      **** //settings
  70:.\main.c      **** #define USING_INTERRUPTS 1      //1 for using interrupts, 0 for polling
  71:.\main.c      **** #define HUMAN_EYE_FPS 60        //at 60hz, most people can't detect difference
  72:.\main.c      **** #define DEBOUNCE_TIME 250      //minimum time to wait for button to finish bouncing
  73:.\main.c      **** #define RAMP_RESOLUTION 50           //RAMP_RESOLUTION for duty cycle
  74:.\main.c      **** #define POT_MAX 4080            //max reading from DAC potentiometer @ 4V
  75:.\main.c      **** #define FREQUENCY_RATIO 4       //divide potentiometer result by this to get a max period.  frequen
  76:.\main.c      **** 
  77:.\main.c      **** //global constants
  78:.\main.c      **** #define on 1
  79:.\main.c      **** #define off 0
  80:.\main.c      **** 
  81:.\main.c      **** //placeholder variables
  82:.\main.c      **** bool debounce_on = false;       //used to delay polling to debounce button
  83:.\main.c      **** bool btn_can_change = false;        //makes sure modes change after button press
  84:.\main.c      **** bool dimming = false;                   //used with the 'ramp' function
  85:.\main.c      **** uint32 toggle_light_time_ms = 500;      //how fast to blink LED in 'blink' mode, can adjust with Po
  86:.\main.c      ****                                         //default to blink the light every half second
  87:.\main.c      **** 
  88:.\main.c      **** //PWM variables
  89:.\main.c      **** uint32 total_time_ms = 500;               //period of PWM, default 500ms
  90:.\main.c      **** uint32 on_time_ms = 250;                  //how many ms the LED is on, must be < total_time_ms
  91:.\main.c      **** uint32 off_time_ms = 250;
  92:.\main.c      **** float duty_cycle = 0.5;                 //what % of PWM is high, default to 50% on
  93:.\main.c      **** 
  94:.\main.c      **** 
  95:.\main.c      **** //possible modes for LED
  96:.\main.c      **** enum pwmMode {blink, ramp};
ARM GAS  C:\Users\Jonah\AppData\Local\Temp\ccZnvLT0.s 			page 4


  97:.\main.c      **** enum pwmMode currentMode;
  98:.\main.c      **** enum pwmMode previousMode;
  99:.\main.c      **** 
 100:.\main.c      **** 
 101:.\main.c      **** //functions
 102:.\main.c      **** void write_led(int);
 103:.\main.c      **** void PWM_Blink(uint32);     //always a 50% duty cycle
 104:.\main.c      **** void PWM_Ramp(uint32, uint32);  //different on/off times
 105:.\main.c      **** void ToggleMode();
 106:.\main.c      **** uint16_t GetPotentiometerValue();
 107:.\main.c      **** CY_ISR(ToggleModes) {
  76              		.loc 1 107 0
  77              		.cfi_startproc
  78              		@ args = 0, pretend = 0, frame = 0
  79              		@ frame_needed = 1, uses_anonymous_args = 0
  80 0000 80B5     		push	{r7, lr}
  81              		.cfi_def_cfa_offset 8
  82              		.cfi_offset 7, -8
  83              		.cfi_offset 14, -4
  84 0002 00AF     		add	r7, sp, #0
  85              		.cfi_def_cfa_register 7
 108:.\main.c      ****     if (currentMode == blink) {
  86              		.loc 1 108 0
  87 0004 084B     		ldr	r3, .L4
  88 0006 1B78     		ldrb	r3, [r3]	@ zero_extendqisi2
  89 0008 002B     		cmp	r3, #0
  90 000a 06D1     		bne	.L2
 109:.\main.c      ****         currentMode = ramp;
  91              		.loc 1 109 0
  92 000c 064B     		ldr	r3, .L4
  93 000e 0122     		movs	r2, #1
  94 0010 1A70     		strb	r2, [r3]
 110:.\main.c      ****         write_led(on);      //user feedback
  95              		.loc 1 110 0
  96 0012 0120     		movs	r0, #1
  97 0014 FFF7FEFF 		bl	write_led
  98 0018 05E0     		b	.L1
  99              	.L2:
 111:.\main.c      ****     } else {
 112:.\main.c      ****         currentMode = blink;
 100              		.loc 1 112 0
 101 001a 034B     		ldr	r3, .L4
 102 001c 0022     		movs	r2, #0
 103 001e 1A70     		strb	r2, [r3]
 113:.\main.c      ****         write_led(off);     //user feedback
 104              		.loc 1 113 0
 105 0020 0020     		movs	r0, #0
 106 0022 FFF7FEFF 		bl	write_led
 107              	.L1:
 114:.\main.c      ****     }
 115:.\main.c      **** }
 108              		.loc 1 115 0
 109 0026 80BD     		pop	{r7, pc}
 110              	.L5:
 111              		.align	2
 112              	.L4:
 113 0028 00000000 		.word	currentMode
ARM GAS  C:\Users\Jonah\AppData\Local\Temp\ccZnvLT0.s 			page 5


 114              		.cfi_endproc
 115              	.LFE63:
 116              		.size	ToggleModes, .-ToggleModes
 117              		.global	__aeabi_fcmpge
 118              		.global	__aeabi_fcmple
 119              		.global	__aeabi_f2d
 120              		.global	__aeabi_dsub
 121              		.global	__aeabi_d2f
 122              		.global	__aeabi_dadd
 123              		.global	__aeabi_ui2f
 124              		.global	__aeabi_fmul
 125              		.global	__aeabi_f2uiz
 126              		.section	.text.main,"ax",%progbits
 127              		.align	2
 128              		.global	main
 129              		.thumb
 130              		.thumb_func
 131              		.type	main, %function
 132              	main:
 133              	.LFB64:
 116:.\main.c      **** 
 117:.\main.c      **** 
 118:.\main.c      **** 
 119:.\main.c      **** 
 120:.\main.c      **** 
 121:.\main.c      **** 
 122:.\main.c      **** 
 123:.\main.c      **** //TODO:
 124:.\main.c      **** //find out how threading works
 125:.\main.c      **** 
 126:.\main.c      **** int main()
 127:.\main.c      **** {
 134              		.loc 1 127 0
 135              		.cfi_startproc
 136              		@ args = 0, pretend = 0, frame = 0
 137              		@ frame_needed = 1, uses_anonymous_args = 0
 138 0000 80B5     		push	{r7, lr}
 139              		.cfi_def_cfa_offset 8
 140              		.cfi_offset 7, -8
 141              		.cfi_offset 14, -4
 142 0002 00AF     		add	r7, sp, #0
 143              		.cfi_def_cfa_register 7
 128:.\main.c      **** 
 129:.\main.c      ****     #if USING_INTERRUPTS
 130:.\main.c      ****         //toggles the led mode by using an interrupt
 131:.\main.c      ****     isr_1_StartEx(ToggleModes);
 144              		.loc 1 131 0
 145 0004 4C48     		ldr	r0, .L19+8
 146 0006 FFF7FEFF 		bl	isr_1_StartEx
 132:.\main.c      ****     CYGlobalIntEnable;
 147              		.loc 1 132 0
 148              	@ 132 ".\main.c" 1
 149 000a 62B6     		CPSIE   i
 150              	@ 0 "" 2
 133:.\main.c      ****     
 134:.\main.c      ****     #endif
 135:.\main.c      ****     
ARM GAS  C:\Users\Jonah\AppData\Local\Temp\ccZnvLT0.s 			page 6


 136:.\main.c      ****     //set default currentMode
 137:.\main.c      ****     currentMode = blink;
 151              		.loc 1 137 0
 152              		.thumb
 153 000c 4B4B     		ldr	r3, .L19+12
 154 000e 0022     		movs	r2, #0
 155 0010 1A70     		strb	r2, [r3]
 138:.\main.c      ****     previousMode = ramp;
 156              		.loc 1 138 0
 157 0012 4B4B     		ldr	r3, .L19+16
 158 0014 0122     		movs	r2, #1
 159 0016 1A70     		strb	r2, [r3]
 139:.\main.c      ****     
 140:.\main.c      ****     //start ADC for potentiometer
 141:.\main.c      ****     ADC_SAR_1_Start();
 160              		.loc 1 141 0
 161 0018 FFF7FEFF 		bl	ADC_SAR_1_Start
 162              	.L15:
 142:.\main.c      **** 
 143:.\main.c      ****     //loop polls button for press if interrupts disabled
 144:.\main.c      ****     //polls potentiometer for values for period of PWM
 145:.\main.c      ****     //only runs if the threading implementation is successful
 146:.\main.c      ****     while (true)
 147:.\main.c      ****     {
 148:.\main.c      ****         //have to poll the button every loop if not using interrupts
 149:.\main.c      ****         #if !(USING_INTERRUPTS)
 150:.\main.c      ****             
 151:.\main.c      ****             //if the button is pressed and was LOW last time
 152:.\main.c      ****             if(Status_Reg_1_Read() && btn_can_change) {
 153:.\main.c      ****                 //wait until button is debounced
 154:.\main.c      ****                 CyDelay(DEBOUNCE_TIME);
 155:.\main.c      ****                 
 156:.\main.c      ****                 //if the button is still pressed, toggle modes
 157:.\main.c      ****                 if (Status_Reg_1_Read()) {
 158:.\main.c      ****                     ToggleMode();
 159:.\main.c      ****                     
 160:.\main.c      ****                     btn_can_change = false;
 161:.\main.c      ****                 }
 162:.\main.c      ****             } 
 163:.\main.c      ****             
 164:.\main.c      ****             //if the button is unpressed, we can toggle modes again
 165:.\main.c      ****             if (!Status_Reg_1_Read() && !btn_can_change) {
 166:.\main.c      ****                 CyDelay(DEBOUNCE_TIME);
 167:.\main.c      ****                 
 168:.\main.c      ****                 if (!Status_Reg_1_Read()) {
 169:.\main.c      ****                     btn_can_change = true;   
 170:.\main.c      ****                 }
 171:.\main.c      ****             }
 172:.\main.c      ****         #endif    
 173:.\main.c      ****         
 174:.\main.c      ****         
 175:.\main.c      ****         
 176:.\main.c      ****         //PWM CYCLE       
 177:.\main.c      ****         
 178:.\main.c      ****         //if we're blinking, for this loop do a blink PWM cycle
 179:.\main.c      ****             if (currentMode == blink){
 163              		.loc 1 179 0
ARM GAS  C:\Users\Jonah\AppData\Local\Temp\ccZnvLT0.s 			page 7


 164 001c 474B     		ldr	r3, .L19+12
 165 001e 1B78     		ldrb	r3, [r3]	@ zero_extendqisi2
 166 0020 002B     		cmp	r3, #0
 167 0022 0DD1     		bne	.L7
 180:.\main.c      ****                 //sets toggle_light_time_ms to value proportional to pot.
 181:.\main.c      ****                 toggle_light_time_ms = GetPotentiometerValue() / FREQUENCY_RATIO;      //min val=0,
 168              		.loc 1 181 0
 169 0024 FFF7FEFF 		bl	GetPotentiometerValue
 170 0028 0346     		mov	r3, r0
 171 002a 9B08     		lsrs	r3, r3, #2
 172 002c 9BB2     		uxth	r3, r3
 173 002e 1A46     		mov	r2, r3
 174 0030 444B     		ldr	r3, .L19+20
 175 0032 1A60     		str	r2, [r3]
 182:.\main.c      ****                 PWM_Blink(toggle_light_time_ms);
 176              		.loc 1 182 0
 177 0034 434B     		ldr	r3, .L19+20
 178 0036 1B68     		ldr	r3, [r3]
 179 0038 1846     		mov	r0, r3
 180 003a FFF7FEFF 		bl	PWM_Blink
 181 003e 76E0     		b	.L8
 182              	.L7:
 183:.\main.c      ****             }
 184:.\main.c      ****             else if (currentMode == ramp) {
 183              		.loc 1 184 0
 184 0040 3E4B     		ldr	r3, .L19+12
 185 0042 1B78     		ldrb	r3, [r3]	@ zero_extendqisi2
 186 0044 012B     		cmp	r3, #1
 187 0046 72D1     		bne	.L8
 185:.\main.c      ****                 //calculate current ramp duty_cycle
 186:.\main.c      **** 
 187:.\main.c      ****                 if (duty_cycle >= 1)    //we have reached full brightness, time to dim
 188              		.loc 1 187 0
 189 0048 3F4B     		ldr	r3, .L19+24
 190 004a 1B68     		ldr	r3, [r3]	@ float
 191 004c 1846     		mov	r0, r3
 192 004e 4FF07E51 		mov	r1, #1065353216
 193 0052 FFF7FEFF 		bl	__aeabi_fcmpge
 194 0056 0346     		mov	r3, r0
 195 0058 002B     		cmp	r3, #0
 196 005a 03D0     		beq	.L18
 188:.\main.c      ****                 {
 189:.\main.c      ****                     dimming = true;
 197              		.loc 1 189 0
 198 005c 3B4B     		ldr	r3, .L19+28
 199 005e 0122     		movs	r2, #1
 200 0060 1A70     		strb	r2, [r3]
 201 0062 0CE0     		b	.L11
 202              	.L18:
 190:.\main.c      ****                 } else if (duty_cycle <= 0) {
 203              		.loc 1 190 0
 204 0064 384B     		ldr	r3, .L19+24
 205 0066 1B68     		ldr	r3, [r3]	@ float
 206 0068 1846     		mov	r0, r3
 207 006a 4FF00001 		mov	r1, #0
 208 006e FFF7FEFF 		bl	__aeabi_fcmple
 209 0072 0346     		mov	r3, r0
ARM GAS  C:\Users\Jonah\AppData\Local\Temp\ccZnvLT0.s 			page 8


 210 0074 002B     		cmp	r3, #0
 211 0076 02D0     		beq	.L11
 191:.\main.c      ****                     dimming = false;
 212              		.loc 1 191 0
 213 0078 344B     		ldr	r3, .L19+28
 214 007a 0022     		movs	r2, #0
 215 007c 1A70     		strb	r2, [r3]
 216              	.L11:
 192:.\main.c      ****                 }
 193:.\main.c      ****                 
 194:.\main.c      ****                 //if we're supposed to dim, lessen the duty cycle
 195:.\main.c      ****                 if (dimming) {
 217              		.loc 1 195 0
 218 007e 334B     		ldr	r3, .L19+28
 219 0080 1B78     		ldrb	r3, [r3]	@ zero_extendqisi2
 220 0082 002B     		cmp	r3, #0
 221 0084 17D0     		beq	.L13
 196:.\main.c      ****                     duty_cycle -= 1.0 / (float) RAMP_RESOLUTION;   //duty cycle gets decremented by
 222              		.loc 1 196 0
 223 0086 304B     		ldr	r3, .L19+24
 224 0088 1B68     		ldr	r3, [r3]	@ float
 225 008a 1846     		mov	r0, r3
 226 008c FFF7FEFF 		bl	__aeabi_f2d
 227 0090 0246     		mov	r2, r0
 228 0092 0B46     		mov	r3, r1
 229 0094 1046     		mov	r0, r2
 230 0096 1946     		mov	r1, r3
 231 0098 25A3     		adr	r3, .L19
 232 009a D3E90023 		ldrd	r2, [r3]
 233 009e FFF7FEFF 		bl	__aeabi_dsub
 234 00a2 0246     		mov	r2, r0
 235 00a4 0B46     		mov	r3, r1
 236 00a6 1046     		mov	r0, r2
 237 00a8 1946     		mov	r1, r3
 238 00aa FFF7FEFF 		bl	__aeabi_d2f
 239 00ae 0246     		mov	r2, r0
 240 00b0 254B     		ldr	r3, .L19+24
 241 00b2 1A60     		str	r2, [r3]	@ float
 242 00b4 16E0     		b	.L14
 243              	.L13:
 197:.\main.c      ****                 } else {
 198:.\main.c      ****                     duty_cycle +=  1.0 / (float) RAMP_RESOLUTION;   //duty cycle is incremented by 
 244              		.loc 1 198 0
 245 00b6 244B     		ldr	r3, .L19+24
 246 00b8 1B68     		ldr	r3, [r3]	@ float
 247 00ba 1846     		mov	r0, r3
 248 00bc FFF7FEFF 		bl	__aeabi_f2d
 249 00c0 0246     		mov	r2, r0
 250 00c2 0B46     		mov	r3, r1
 251 00c4 1046     		mov	r0, r2
 252 00c6 1946     		mov	r1, r3
 253 00c8 19A3     		adr	r3, .L19
 254 00ca D3E90023 		ldrd	r2, [r3]
 255 00ce FFF7FEFF 		bl	__aeabi_dadd
 256 00d2 0246     		mov	r2, r0
 257 00d4 0B46     		mov	r3, r1
 258 00d6 1046     		mov	r0, r2
ARM GAS  C:\Users\Jonah\AppData\Local\Temp\ccZnvLT0.s 			page 9


 259 00d8 1946     		mov	r1, r3
 260 00da FFF7FEFF 		bl	__aeabi_d2f
 261 00de 0246     		mov	r2, r0
 262 00e0 194B     		ldr	r3, .L19+24
 263 00e2 1A60     		str	r2, [r3]	@ float
 264              	.L14:
 199:.\main.c      ****                 }
 200:.\main.c      ****                 
 201:.\main.c      ****                 total_time_ms = (1.0 / (float) HUMAN_EYE_FPS) * 1000;       //could be a constant i
 265              		.loc 1 201 0
 266 00e4 1A4B     		ldr	r3, .L19+32
 267 00e6 1022     		movs	r2, #16
 268 00e8 1A60     		str	r2, [r3]
 202:.\main.c      ****                 on_time_ms = duty_cycle * total_time_ms;
 269              		.loc 1 202 0
 270 00ea 194B     		ldr	r3, .L19+32
 271 00ec 1B68     		ldr	r3, [r3]
 272 00ee 1846     		mov	r0, r3
 273 00f0 FFF7FEFF 		bl	__aeabi_ui2f
 274 00f4 0246     		mov	r2, r0
 275 00f6 144B     		ldr	r3, .L19+24
 276 00f8 1B68     		ldr	r3, [r3]	@ float
 277 00fa 1046     		mov	r0, r2
 278 00fc 1946     		mov	r1, r3
 279 00fe FFF7FEFF 		bl	__aeabi_fmul
 280 0102 0346     		mov	r3, r0
 281 0104 1846     		mov	r0, r3
 282 0106 FFF7FEFF 		bl	__aeabi_f2uiz
 283 010a 0246     		mov	r2, r0
 284 010c 114B     		ldr	r3, .L19+36
 285 010e 1A60     		str	r2, [r3]
 203:.\main.c      ****                 off_time_ms = total_time_ms - on_time_ms;
 286              		.loc 1 203 0
 287 0110 0F4B     		ldr	r3, .L19+32
 288 0112 1A68     		ldr	r2, [r3]
 289 0114 0F4B     		ldr	r3, .L19+36
 290 0116 1B68     		ldr	r3, [r3]
 291 0118 D31A     		subs	r3, r2, r3
 292 011a 0F4A     		ldr	r2, .L19+40
 293 011c 1360     		str	r3, [r2]
 204:.\main.c      ****                 
 205:.\main.c      ****                 PWM_Ramp(on_time_ms, off_time_ms);
 294              		.loc 1 205 0
 295 011e 0D4B     		ldr	r3, .L19+36
 296 0120 1A68     		ldr	r2, [r3]
 297 0122 0D4B     		ldr	r3, .L19+40
 298 0124 1B68     		ldr	r3, [r3]
 299 0126 1046     		mov	r0, r2
 300 0128 1946     		mov	r1, r3
 301 012a FFF7FEFF 		bl	PWM_Ramp
 302              	.L8:
 206:.\main.c      ****             } 
 207:.\main.c      ****             
 208:.\main.c      ****             
 209:.\main.c      ****     }
 303              		.loc 1 209 0
 304 012e 75E7     		b	.L15
ARM GAS  C:\Users\Jonah\AppData\Local\Temp\ccZnvLT0.s 			page 10


 305              	.L20:
 306              		.align	3
 307              	.L19:
 308 0130 7B14AE47 		.word	1202590843
 309 0134 E17A943F 		.word	1066695393
 310 0138 00000000 		.word	ToggleModes
 311 013c 00000000 		.word	currentMode
 312 0140 00000000 		.word	previousMode
 313 0144 00000000 		.word	toggle_light_time_ms
 314 0148 00000000 		.word	duty_cycle
 315 014c 00000000 		.word	dimming
 316 0150 00000000 		.word	total_time_ms
 317 0154 00000000 		.word	on_time_ms
 318 0158 00000000 		.word	off_time_ms
 319              		.cfi_endproc
 320              	.LFE64:
 321              		.size	main, .-main
 322 015c AFF30080 		.section	.text.ToggleMode,"ax",%progbits
 323              		.align	2
 324              		.global	ToggleMode
 325              		.thumb
 326              		.thumb_func
 327              		.type	ToggleMode, %function
 328              	ToggleMode:
 329              	.LFB65:
 210:.\main.c      ****     
 211:.\main.c      ****     return 0;
 212:.\main.c      **** }
 213:.\main.c      **** 
 214:.\main.c      **** 
 215:.\main.c      **** void ToggleMode() {
 330              		.loc 1 215 0
 331              		.cfi_startproc
 332              		@ args = 0, pretend = 0, frame = 0
 333              		@ frame_needed = 1, uses_anonymous_args = 0
 334              		@ link register save eliminated.
 335 0000 80B4     		push	{r7}
 336              		.cfi_def_cfa_offset 4
 337              		.cfi_offset 7, -4
 338 0002 00AF     		add	r7, sp, #0
 339              		.cfi_def_cfa_register 7
 216:.\main.c      ****     if (currentMode == blink) {
 340              		.loc 1 216 0
 341 0004 094B     		ldr	r3, .L24
 342 0006 1B78     		ldrb	r3, [r3]	@ zero_extendqisi2
 343 0008 002B     		cmp	r3, #0
 344 000a 03D1     		bne	.L22
 217:.\main.c      ****         currentMode = ramp;
 345              		.loc 1 217 0
 346 000c 074B     		ldr	r3, .L24
 347 000e 0122     		movs	r2, #1
 348 0010 1A70     		strb	r2, [r3]
 349 0012 06E0     		b	.L21
 350              	.L22:
 218:.\main.c      ****     } else if (currentMode == ramp){
 351              		.loc 1 218 0
 352 0014 054B     		ldr	r3, .L24
ARM GAS  C:\Users\Jonah\AppData\Local\Temp\ccZnvLT0.s 			page 11


 353 0016 1B78     		ldrb	r3, [r3]	@ zero_extendqisi2
 354 0018 012B     		cmp	r3, #1
 355 001a 02D1     		bne	.L21
 219:.\main.c      ****         currentMode = blink;
 356              		.loc 1 219 0
 357 001c 034B     		ldr	r3, .L24
 358 001e 0022     		movs	r2, #0
 359 0020 1A70     		strb	r2, [r3]
 360              	.L21:
 220:.\main.c      ****     }
 221:.\main.c      **** 
 222:.\main.c      **** }
 361              		.loc 1 222 0
 362 0022 BD46     		mov	sp, r7
 363              		.cfi_def_cfa_register 13
 364              		@ sp needed
 365 0024 5DF8047B 		ldr	r7, [sp], #4
 366              		.cfi_restore 7
 367              		.cfi_def_cfa_offset 0
 368 0028 7047     		bx	lr
 369              	.L25:
 370 002a 00BF     		.align	2
 371              	.L24:
 372 002c 00000000 		.word	currentMode
 373              		.cfi_endproc
 374              	.LFE65:
 375              		.size	ToggleMode, .-ToggleMode
 376              		.section	.text.GetPotentiometerValue,"ax",%progbits
 377              		.align	2
 378              		.global	GetPotentiometerValue
 379              		.thumb
 380              		.thumb_func
 381              		.type	GetPotentiometerValue, %function
 382              	GetPotentiometerValue:
 383              	.LFB66:
 223:.\main.c      **** 
 224:.\main.c      **** 
 225:.\main.c      **** //returns the value from potentiometer
 226:.\main.c      **** uint16_t GetPotentiometerValue() {
 384              		.loc 1 226 0
 385              		.cfi_startproc
 386              		@ args = 0, pretend = 0, frame = 8
 387              		@ frame_needed = 1, uses_anonymous_args = 0
 388 0000 80B5     		push	{r7, lr}
 389              		.cfi_def_cfa_offset 8
 390              		.cfi_offset 7, -8
 391              		.cfi_offset 14, -4
 392 0002 82B0     		sub	sp, sp, #8
 393              		.cfi_def_cfa_offset 16
 394 0004 00AF     		add	r7, sp, #0
 395              		.cfi_def_cfa_register 7
 227:.\main.c      ****     //poll potentiometer
 228:.\main.c      ****         ADC_SAR_1_StartConvert(); 
 396              		.loc 1 228 0
 397 0006 FFF7FEFF 		bl	ADC_SAR_1_StartConvert
 229:.\main.c      ****         ADC_SAR_1_IsEndConversion(ADC_SAR_1_WAIT_FOR_RESULT);   //blocks until conversion complete
 398              		.loc 1 229 0
ARM GAS  C:\Users\Jonah\AppData\Local\Temp\ccZnvLT0.s 			page 12


 399 000a 0020     		movs	r0, #0
 400 000c FFF7FEFF 		bl	ADC_SAR_1_IsEndConversion
 230:.\main.c      ****         
 231:.\main.c      ****         uint16_t result = ADC_SAR_1_GetResult16();
 401              		.loc 1 231 0
 402 0010 FFF7FEFF 		bl	ADC_SAR_1_GetResult16
 403 0014 0346     		mov	r3, r0
 404 0016 FB80     		strh	r3, [r7, #6]	@ movhi
 232:.\main.c      ****         
 233:.\main.c      ****         return result;
 405              		.loc 1 233 0
 406 0018 FB88     		ldrh	r3, [r7, #6]
 234:.\main.c      **** }
 407              		.loc 1 234 0
 408 001a 1846     		mov	r0, r3
 409 001c 0837     		adds	r7, r7, #8
 410              		.cfi_def_cfa_offset 8
 411 001e BD46     		mov	sp, r7
 412              		.cfi_def_cfa_register 13
 413              		@ sp needed
 414 0020 80BD     		pop	{r7, pc}
 415              		.cfi_endproc
 416              	.LFE66:
 417              		.size	GetPotentiometerValue, .-GetPotentiometerValue
 418 0022 00BF     		.section	.text.write_led,"ax",%progbits
 419              		.align	2
 420              		.global	write_led
 421              		.thumb
 422              		.thumb_func
 423              		.type	write_led, %function
 424              	write_led:
 425              	.LFB67:
 235:.\main.c      **** 
 236:.\main.c      **** //shorthand for writing to control register
 237:.\main.c      **** void write_led(int value) {
 426              		.loc 1 237 0
 427              		.cfi_startproc
 428              		@ args = 0, pretend = 0, frame = 8
 429              		@ frame_needed = 1, uses_anonymous_args = 0
 430 0000 80B5     		push	{r7, lr}
 431              		.cfi_def_cfa_offset 8
 432              		.cfi_offset 7, -8
 433              		.cfi_offset 14, -4
 434 0002 82B0     		sub	sp, sp, #8
 435              		.cfi_def_cfa_offset 16
 436 0004 00AF     		add	r7, sp, #0
 437              		.cfi_def_cfa_register 7
 438 0006 7860     		str	r0, [r7, #4]
 238:.\main.c      ****     Control_Reg_1_Write(value);   
 439              		.loc 1 238 0
 440 0008 7B68     		ldr	r3, [r7, #4]
 441 000a DBB2     		uxtb	r3, r3
 442 000c 1846     		mov	r0, r3
 443 000e FFF7FEFF 		bl	Control_Reg_1_Write
 239:.\main.c      **** }
 444              		.loc 1 239 0
 445 0012 0837     		adds	r7, r7, #8
ARM GAS  C:\Users\Jonah\AppData\Local\Temp\ccZnvLT0.s 			page 13


 446              		.cfi_def_cfa_offset 8
 447 0014 BD46     		mov	sp, r7
 448              		.cfi_def_cfa_register 13
 449              		@ sp needed
 450 0016 80BD     		pop	{r7, pc}
 451              		.cfi_endproc
 452              	.LFE67:
 453              		.size	write_led, .-write_led
 454              		.section	.text.PWM_Blink,"ax",%progbits
 455              		.align	2
 456              		.global	PWM_Blink
 457              		.thumb
 458              		.thumb_func
 459              		.type	PWM_Blink, %function
 460              	PWM_Blink:
 461              	.LFB68:
 240:.\main.c      **** 
 241:.\main.c      **** //software PWM function runs in a separate thread.  
 242:.\main.c      **** //runs calculations for PWM parameters, then calls PWM_Blink for timing
 243:.\main.c      **** 
 244:.\main.c      **** //shorthand to wait for timing
 245:.\main.c      **** //evenly blinks LED with equal on/off times
 246:.\main.c      **** void PWM_Blink(uint32 halfPeriod) {
 462              		.loc 1 246 0
 463              		.cfi_startproc
 464              		@ args = 0, pretend = 0, frame = 8
 465              		@ frame_needed = 1, uses_anonymous_args = 0
 466 0000 80B5     		push	{r7, lr}
 467              		.cfi_def_cfa_offset 8
 468              		.cfi_offset 7, -8
 469              		.cfi_offset 14, -4
 470 0002 82B0     		sub	sp, sp, #8
 471              		.cfi_def_cfa_offset 16
 472 0004 00AF     		add	r7, sp, #0
 473              		.cfi_def_cfa_register 7
 474 0006 7860     		str	r0, [r7, #4]
 247:.\main.c      ****     write_led(on);
 475              		.loc 1 247 0
 476 0008 0120     		movs	r0, #1
 477 000a FFF7FEFF 		bl	write_led
 248:.\main.c      ****     CyDelay(halfPeriod);
 478              		.loc 1 248 0
 479 000e 7868     		ldr	r0, [r7, #4]
 480 0010 FFF7FEFF 		bl	CyDelay
 249:.\main.c      ****     write_led(off);
 481              		.loc 1 249 0
 482 0014 0020     		movs	r0, #0
 483 0016 FFF7FEFF 		bl	write_led
 250:.\main.c      ****     CyDelay(halfPeriod); 
 484              		.loc 1 250 0
 485 001a 7868     		ldr	r0, [r7, #4]
 486 001c FFF7FEFF 		bl	CyDelay
 251:.\main.c      **** }
 487              		.loc 1 251 0
 488 0020 0837     		adds	r7, r7, #8
 489              		.cfi_def_cfa_offset 8
 490 0022 BD46     		mov	sp, r7
ARM GAS  C:\Users\Jonah\AppData\Local\Temp\ccZnvLT0.s 			page 14


 491              		.cfi_def_cfa_register 13
 492              		@ sp needed
 493 0024 80BD     		pop	{r7, pc}
 494              		.cfi_endproc
 495              	.LFE68:
 496              		.size	PWM_Blink, .-PWM_Blink
 497 0026 00BF     		.section	.text.PWM_Ramp,"ax",%progbits
 498              		.align	2
 499              		.global	PWM_Ramp
 500              		.thumb
 501              		.thumb_func
 502              		.type	PWM_Ramp, %function
 503              	PWM_Ramp:
 504              	.LFB69:
 252:.\main.c      **** 
 253:.\main.c      **** //used for different duty cycle
 254:.\main.c      **** void PWM_Ramp(uint32 on_time, uint32 off_time) {
 505              		.loc 1 254 0
 506              		.cfi_startproc
 507              		@ args = 0, pretend = 0, frame = 8
 508              		@ frame_needed = 1, uses_anonymous_args = 0
 509 0000 80B5     		push	{r7, lr}
 510              		.cfi_def_cfa_offset 8
 511              		.cfi_offset 7, -8
 512              		.cfi_offset 14, -4
 513 0002 82B0     		sub	sp, sp, #8
 514              		.cfi_def_cfa_offset 16
 515 0004 00AF     		add	r7, sp, #0
 516              		.cfi_def_cfa_register 7
 517 0006 7860     		str	r0, [r7, #4]
 518 0008 3960     		str	r1, [r7]
 255:.\main.c      ****     write_led(on);
 519              		.loc 1 255 0
 520 000a 0120     		movs	r0, #1
 521 000c FFF7FEFF 		bl	write_led
 256:.\main.c      ****     CyDelay(on_time);
 522              		.loc 1 256 0
 523 0010 7868     		ldr	r0, [r7, #4]
 524 0012 FFF7FEFF 		bl	CyDelay
 257:.\main.c      ****     write_led(off);
 525              		.loc 1 257 0
 526 0016 0020     		movs	r0, #0
 527 0018 FFF7FEFF 		bl	write_led
 258:.\main.c      ****     CyDelay(off_time); 
 528              		.loc 1 258 0
 529 001c 3868     		ldr	r0, [r7]
 530 001e FFF7FEFF 		bl	CyDelay
 259:.\main.c      **** }
 531              		.loc 1 259 0
 532 0022 0837     		adds	r7, r7, #8
 533              		.cfi_def_cfa_offset 8
 534 0024 BD46     		mov	sp, r7
 535              		.cfi_def_cfa_register 13
 536              		@ sp needed
 537 0026 80BD     		pop	{r7, pc}
 538              		.cfi_endproc
 539              	.LFE69:
ARM GAS  C:\Users\Jonah\AppData\Local\Temp\ccZnvLT0.s 			page 15


 540              		.size	PWM_Ramp, .-PWM_Ramp
 541              		.text
 542              	.Letext0:
 543              		.file 2 "c:\\program files (x86)\\cypress\\psoc creator\\3.3\\psoc creator\\import\\gnu\\arm\\4.9.
 544              		.file 3 "c:\\program files (x86)\\cypress\\psoc creator\\3.3\\psoc creator\\import\\gnu\\arm\\4.9.
 545              		.file 4 "Generated_Source\\PSoC5/cytypes.h"
 546              		.file 5 "Generated_Source\\PSoC5/core_cm3.h"